;notes by Jesus7Freak
;haloce.1.09 map=bloodgulch  p0 killed by a vehicle


;static player.respawn timer (offset 0x2C)
0046100F - 89 46 2C  - mov [esi+2C],eax
0046109C - 8B 46 2C  - mov eax,[esi+2C]
004610AE - 89 46 2C  - mov [esi+2C],eax
004610B8 - 89 46 2C  - mov [esi+2C],eax
0056BA08 - 8B 40 2C  - mov eax,[eax+2C]
004642A4 - 8B 4D 2C  - mov ecx,[ebp+2C]
00461D63 - 8B 43 2C  - mov eax,[ebx+2C]
00461DAC - FF 4B 2C  - dec [ebx+2C]



00473289   50               PUSH EAX ;00000400
0047328A   51               PUSH ECX ;EC700000 static player tag
0047328B   52               PUSH EDX ;E2750006
0047328C   8BD6             MOV EDX,ESI ;4
0047328E   E8 DDDCFEFF      CALL haloce.00460F70
->
00460F70   8B4C24 08        MOV ECX,DWORD PTR SS:[ESP+8] ;2nd param->ECX=EC700000
00460F74   A1 C0558100      MOV EAX,DWORD PTR DS:[8155C0] ;"players"
00460F79   81EC 10080000    SUB ESP,810
00460F7F   55               PUSH EBP
00460F80   8BE9             MOV EBP,ECX ;->EBP=EC700000
00460F82   56               PUSH ESI
00460F83   8B70 34          MOV ESI,DWORD PTR DS:[EAX+34] 
00460F86   A1 44CD6800      MOV EAX,DWORD PTR DS:[68CD44] ;->EAX=006236B8
00460F8B   81E5 FFFF0000    AND EBP,0FFFF
00460F91   C1E5 09          SHL EBP,9
00460F94   03F5             ADD ESI,EBP ;static player->ESI=402AAFCC
00460F96   85C0             TEST EAX,EAX
00460F98   57               PUSH EDI
00460F99   8BFA             MOV EDI,EDX ;->EDI=4
00460F9B   0F84 50060000    JE haloce.004615F1
00460FA1   8B15 90CD6800    MOV EDX,DWORD PTR DS:[68CD90];->EDX=400002E8
00460FA7   8B52 0C          MOV EDX,DWORD PTR DS:[EDX+C] ;respawn time EDX=00000530
00460FAA   8996 84000000    MOV DWORD PTR DS:[ESI+84],EDX
00460FB0   8B40 68          MOV EAX,DWORD PTR DS:[EAX+68] ;static player.ActiveCamoTimer ->EAX=00472340
00460FB3   85C0             TEST EAX,EAX
00460FB5   74 17            JE SHORT haloce.00460FCE
00460FB7   8B9424 28080000  MOV EDX,DWORD PTR SS:[ESP+828] ;3rd param time?->EDX=00000400
00460FBE   52               PUSH EDX
00460FBF   51               PUSH ECX
00460FC0   8B8C24 28080000  MOV ECX,DWORD PTR SS:[ESP+828] ;1st param killed by, obj tag? ->ECX=E2750006
00460FC7   51               PUSH ECX
00460FC8   57               PUSH EDI
00460FC9   FFD0             CALL EAX ;00472340
->
 00472340   A1 C0558100      MOV EAX,DWORD PTR DS:[8155C0]
 00472345   8B40 34          MOV EAX,DWORD PTR DS:[EAX+34]
 00472348   53               PUSH EBX
 00472349   8B5C24 10        MOV EBX,DWORD PTR SS:[ESP+10] ;EC700000
 0047234D   8BCB             MOV ECX,EBX
 0047234F   81E1 FFFF0000    AND ECX,0FFFF
 00472355   C1E1 09          SHL ECX,9
 00472358   8A9401 D5000000  MOV DL,BYTE PTR DS:[ECX+EAX+D5] ;static player.0xD5 ->DL=00
 0047235F   84D2             TEST DL,DL
 00472361   75 69            JNZ SHORT haloce.004723CC
 00472363   57               PUSH EDI
 00472364   8B7C24 0C        MOV EDI,DWORD PTR SS:[ESP+C] ;->EDI=FFFFFFFF
 00472368   83FF FF          CMP EDI,-1
 0047236B   74 5E            JE SHORT haloce.004723CB
 ;0047236D   56               PUSH ESI
 ;0047236E   8BF7             MOV ESI,EDI
 ;00472370   81E6 FFFF0000    AND ESI,0FFFF
 ;00472376   C1E6 09          SHL ESI,9
 ;00472379   03F0             ADD ESI,EAX
 ;0047237B   8A4424 1C        MOV AL,BYTE PTR SS:[ESP+1C]
 ;0047237F   84C0             TEST AL,AL
 ;00472381   8BC7             MOV EAX,EDI
 ;00472383   75 3A            JNZ SHORT haloce.004723BF
 ;00472385   8BCB             MOV ECX,EBX
 ;00472387   E8 84FEFFFF      CALL haloce.00472210
 ;0047238C   A0 06CD6800      MOV AL,BYTE PTR DS:[68CD06]
 ;00472391   84C0             TEST AL,AL
 ;00472393   74 1B            JE SHORT haloce.004723B0
 ;00472395   66:833D D0476B00>CMP WORD PTR DS:[6B47D0],2
 ;0047239D   75 11            JNZ SHORT haloce.004723B0
 ;0047239F   399E 88000000    CMP DWORD PTR DS:[ESI+88],EBX
 ;004723A5   75 23            JNZ SHORT haloce.004723CA
 ;004723A7   57               PUSH EDI
 ;004723A8   E8 B3FBFFFF      CALL haloce.00471F60
 ;004723AD   83C4 04          ADD ESP,4
 ;004723B0   5E               POP ESI
 ;004723B1   8BC7             MOV EAX,EDI
 ;004723B3   5F               POP EDI
 ;004723B4   BA 01000000      MOV EDX,1
 ;004723B9   5B               POP EBX
 ;004723BA  ^E9 41FFFFFF      JMP haloce.00472300
 ;004723BF   5E               POP ESI
 ;004723C0   5F               POP EDI
 ;004723C1   83CA FF          OR EDX,FFFFFFFF
 ;004723C4   5B               POP EBX
 ;004723C5  ^E9 36FFFFFF      JMP haloce.00472300
 ;004723CA   5E               POP ESI
 004723CB   5F               POP EDI
 004723CC   5B               POP EBX
 004723CD   C3               RETN
<-
00460FCB   83C4 10          ADD ESP,10
00460FCE   8B8424 24080000  MOV EAX,DWORD PTR SS:[ESP+824] ;2nd param ->EAX=EC700000
00460FD5   3BF8             CMP EDI,EAX
00460FD7   53               PUSH EBX
00460FD8   0F94C3           SETE BL ;->BL=00
00460FDB   83FF FF          CMP EDI,-1
00460FDE   74 09            JE SHORT haloce.00460FE9
;00460FE0   83F8 FF          CMP EAX,-1
;00460FE3   74 04            JE SHORT haloce.00460FE9
;00460FE5   B0 01            MOV AL,1
;00460FE7   EB 02            JMP SHORT haloce.00460FEB
00460FE9   32C0             XOR AL,AL
00460FEB   8A8C24 2C080000  MOV CL,BYTE PTR SS:[ESP+82C] ;->CL=00
00460FF2   84C9             TEST CL,CL
00460FF4   75 0C            JNZ SHORT haloce.00461002
00460FF6   84C0             TEST AL,AL
00460FF8   74 08            JE SHORT haloce.00461002
;00460FFA   84DB             TEST BL,BL
;00460FFC   75 04            JNZ SHORT haloce.00461002
;00460FFE   B2 01            MOV DL,1
;00461000   EB 02            JMP SHORT haloce.00461004
00461002   32D2             XOR DL,DL
00461004   8B0D B0CC6800    MOV ECX,DWORD PTR DS:[68CCB0] ;->ECX=00000000
0046100A   8B46 30          MOV EAX,DWORD PTR DS:[ESI+30] ;static player.0x30 respawn time modifer?->EAX=00000000
0046100D   03C1             ADD EAX,ECX
0046100F   8946 2C          MOV DWORD PTR DS:[ESI+2C],EAX ;static player.RespawnTimer
00461012   A1 ACCC6800      MOV EAX,DWORD PTR DS:[68CCAC] ;->EAX=00000000
00461017   85C0             TEST EAX,EAX
00461019   7E 53            JLE SHORT haloce.0046106E
;0046101B   8B4E 30          MOV ECX,DWORD PTR DS:[ESI+30]
;0046101E   03C8             ADD ECX,EAX
;00461020   894E 30          MOV DWORD PTR DS:[ESI+30],ECX
;00461023   A1 ACCC6800      MOV EAX,DWORD PTR DS:[68CCAC]
;00461028   8D0480           LEA EAX,DWORD PTR DS:[EAX+EAX*4]
;0046102B   3BC8             CMP ECX,EAX
;0046102D   7F 02            JG SHORT haloce.00461031
;0046102F   8BC1             MOV EAX,ECX
;00461031   84D2             TEST DL,DL
;00461033   8946 30          MOV DWORD PTR DS:[ESI+30],EAX
;00461036   74 36            JE SHORT haloce.0046106E
;00461038   83FF FF          CMP EDI,-1
;0046103B   74 31            JE SHORT haloce.0046106E
;0046103D   8B0D C0558100    MOV ECX,DWORD PTR DS:[8155C0]
;00461043   8B51 34          MOV EDX,DWORD PTR DS:[ECX+34]
;00461046   8BC7             MOV EAX,EDI
;00461048   25 FFFF0000      AND EAX,0FFFF
;0046104D   C1E0 09          SHL EAX,9
;00461050   8B4C10 30        MOV ECX,DWORD PTR DS:[EAX+EDX+30]
;00461054   03C2             ADD EAX,EDX
;00461056   8B15 ACCC6800    MOV EDX,DWORD PTR DS:[68CCAC]
;0046105C   2BCA             SUB ECX,EDX
;0046105E   33D2             XOR EDX,EDX
;00461060   85C9             TEST ECX,ECX
;00461062   0F9EC2           SETLE DL
;00461065   8948 30          MOV DWORD PTR DS:[EAX+30],ECX
;00461068   4A               DEC EDX
;00461069   23CA             AND ECX,EDX
;0046106B   8948 30          MOV DWORD PTR DS:[EAX+30],ECX
0046106E   84DB             TEST BL,BL ;00
00461070   74 08            JE SHORT haloce.0046107A
;00461072   A1 B4CC6800      MOV EAX,DWORD PTR DS:[68CCB4]
;00461077   0146 2C          ADD DWORD PTR DS:[ESI+2C],EAX
0046107A   66:8B86 C0000000 MOV AX,WORD PTR DS:[ESI+C0] ;static player.0xC0 betrayal count?->AX=0000
00461081   66:85C0          TEST AX,AX
00461084   74 16            JE SHORT haloce.0046109C
;00461086   0FBFC8           MOVSX ECX,AX
;00461089   0FAF0D D8CC6800  IMUL ECX,DWORD PTR DS:[68CCD8]
;00461090   014E 2C          ADD DWORD PTR DS:[ESI+2C],ECX
;00461093   66:C786 C0000000>MOV WORD PTR DS:[ESI+C0],0
0046109C   8B46 2C          MOV EAX,DWORD PTR DS:[ESI+2C] ;static player.RespawnTimer
0046109F   83F8 5A          CMP EAX,5A ;3 secs
004610A2   7F 05            JG SHORT haloce.004610A9
004610A4   B8 5A000000      MOV EAX,5A
004610A9   3D 28230000      CMP EAX,2328 ;300 secs
004610AE   8946 2C          MOV DWORD PTR DS:[ESI+2C],EAX ;static player.RespawnTimer
004610B1   7E 05            JLE SHORT haloce.004610B8
004610B3   B8 28230000      MOV EAX,2328
004610B8   8946 2C          MOV DWORD PTR DS:[ESI+2C],EAX ;static player.RespawnTimer
004610BB   66:833D D0476B00>CMP WORD PTR DS:[6B47D0],2 ;2==2?
004610C3   75 0F            JNZ SHORT haloce.004610D4
004610C5   6A FF            PUSH -1
004610C7   BB 01000000      MOV EBX,1
004610CC   E8 2F890000      CALL haloce.00469A00
->
 00469A00   56               PUSH ESI
 00469A01   57               PUSH EDI
 00469A02   33FF             XOR EDI,EDI
 00469A04   BE D8BA6400      MOV ESI,haloce.0064BAD8
 00469A09   8DA424 00000000  LEA ESP,DWORD PTR SS:[ESP]
 00469A10   803E 01          CMP BYTE PTR DS:[ESI],1 ;1==1?
 00469A13   75 0B            JNZ SHORT haloce.00469A20
 00469A15   53               PUSH EBX
 00469A16   8BC7             MOV EAX,EDI ;->EAX=00000000
 00469A18   E8 13020000      CALL haloce.00469C30
 ->
  00469C30   83EC 28          SUB ESP,28
  00469C33   53               PUSH EBX
  00469C34   8D1C40           LEA EBX,DWORD PTR DS:[EAX+EAX*2] ;->EBX=00000000
  00469C37   A1 C0558100      MOV EAX,DWORD PTR DS:[8155C0] ;"players"
  00469C3C   55               PUSH EBP
  00469C3D   8B6C24 34        MOV EBP,DWORD PTR SS:[ESP+34] ;->EBP=00000001
  00469C41   C1E3 04          SHL EBX,4 ;->EBX=00000000
  00469C44   8B8B DCBA6400    MOV ECX,DWORD PTR DS:[EBX+64BADC] ;static player tag->ECX=EC700000
  00469C4A   56               PUSH ESI
  00469C4B   8B70 34          MOV ESI,DWORD PTR DS:[EAX+34] ;->ESI=402AAFCC
  00469C4E   57               PUSH EDI
  00469C4F   8BF9             MOV EDI,ECX
  00469C51   81E7 FFFF0000    AND EDI,0FFFF
  00469C57   C1E7 09          SHL EDI,9
  00469C5A   03FE             ADD EDI,ESI ;static player->EDI=402AAFCC
  00469C5C   33C0             XOR EAX,EAX
  00469C5E   83F9 FF          CMP ECX,-1
  00469C61   74 15            JE SHORT haloce.00469C78
  00469C63   8B35 182B6200    MOV ESI,DWORD PTR DS:[622B18]  ; haloce.00622A90
  00469C69   83C6 0C          ADD ESI,0C ;->ESI=00622A9C
  00469C6C   E8 FFA50800      CALL haloce.004F4270
  ->
   004F4270   8A06             MOV AL,BYTE PTR DS:[ESI] ;->AL=01
   004F4272   57               PUSH EDI
   004F4273   83CF FF          OR EDI,FFFFFFFF ;->EDI=FFFFFFFF
   004F4276   3C 01            CMP AL,1
   004F4278   75 27            JNZ SHORT haloce.004F42A1
   004F427A   83F9 FF          CMP ECX,-1 ;ECX=EC700000
   004F427D   74 22            JE SHORT haloce.004F42A1
   004F427F   85C9             TEST ECX,ECX
   004F4281   8BC1             MOV EAX,ECX ;->EAX=EC700000
   004F4283   7D 02            JGE SHORT haloce.004F4287
   004F4285   F7D8             NEG EAX ;->EAX=13900000
   004F4287   99               CDQ ;->EDX=00000000
   004F4288   F77E 04          IDIV DWORD PTR DS:[ESI+4] ;DS:[00622AA0]=00000011 ->EAX=01269696  EDX=0000000A
   004F428B   8B46 08          MOV EAX,DWORD PTR DS:[ESI+8] ;->EAX=10FD98A8
   004F428E   8B54D0 04        MOV EDX,DWORD PTR DS:[EAX+EDX*8+4] ;->EDX=0EC37210
   004F4292   85D2             TEST EDX,EDX
   004F4294   74 0B            JE SHORT haloce.004F42A1
   004F4296   390A             CMP DWORD PTR DS:[EDX],ECX ;EC700000==EC700000?
   004F4298   74 0B            JE SHORT haloce.004F42A5
   ;004F429A   8B52 08          MOV EDX,DWORD PTR DS:[EDX+8]
   ;004F429D   85D2             TEST EDX,EDX
   ;004F429F  ^75 F5            JNZ SHORT haloce.004F4296
   ;004F42A1   8BC7             MOV EAX,EDI
   ;004F42A3   5F               POP EDI
   ;004F42A4   C3               RETN
   004F42A5   8B42 04          MOV EAX,DWORD PTR DS:[EDX+4] ;->EAX=00000001
   004F42A8   5F               POP EDI
   004F42A9   C3               RETN
 <-
  00469C71   83F8 FF          CMP EAX,-1
  00469C74   75 02            JNZ SHORT haloce.00469C78
  ;00469C76   33C0             XOR EAX,EAX
  00469C78   894424 3C        MOV DWORD PTR SS:[ESP+3C],EAX ;Stack SS:[0017D148]
  00469C7C   8B8F 9C000000    MOV ECX,DWORD PTR DS:[EDI+9C] ;static player.0x9C ->ECX=00000000
  00469C82   894C24 10        MOV DWORD PTR SS:[ESP+10],ECX ;Stack SS:[0017D11C]
  00469C86   8B97 A0000000    MOV EDX,DWORD PTR DS:[EDI+A0] ;static player.0xA0 ->EDX=00000000
  00469C8C   895424 14        MOV DWORD PTR SS:[ESP+14],EDX ;Stack SS:[0017D120]
  00469C90   8B87 A4000000    MOV EAX,DWORD PTR DS:[EDI+A4] ;static player.0xA4 ->EAX=00000000
  00469C96   894424 18        MOV DWORD PTR SS:[ESP+18],EAX ;Stack SS:[0017D124]
  00469C9A   8B8F A8000000    MOV ECX,DWORD PTR DS:[EDI+A8] ;static player.KillsCount ->ECX=00000000
  00469CA0   894C24 1C        MOV DWORD PTR SS:[ESP+1C],ECX ;Stack SS:[0017D128]
  00469CA4   66:8B97 AC000000 MOV DX,WORD PTR DS:[EDI+AC] ;static player.0xAC ->DX=0000
  00469CAB   66:895424 20     MOV WORD PTR SS:[ESP+20],DX ;Stack SS:[0017D12C]
  00469CB0   66:8B87 AE000000 MOV AX,WORD PTR DS:[EDI+AE] ;staic player.0xAE -> AX=0001
  00469CB7   66:894424 22     MOV WORD PTR SS:[ESP+22],AX ;Stack SS:[0017D12E]
  00469CBC   66:8B8F B0000000 MOV CX,WORD PTR DS:[EDI+B0] ;staic player.0xBO ->CX=0000
  00469CC3   66:894C24 24     MOV WORD PTR SS:[ESP+24],CX ;Stack SS:[0017D130]
  00469CC8   8D97 C4000000    LEA EDX,DWORD PTR DS:[EDI+C4] ;static player.0xC4 ->EDX=402AB090 (struct 6 bytes?)
  00469CCE   8B02             MOV EAX,DWORD PTR DS:[EDX] ;->EAX=00000000
  00469CD0   894424 26        MOV DWORD PTR SS:[ESP+26],EAX ;Stack SS:[0017D132]
  00469CD4   66:8B4A 04       MOV CX,WORD PTR DS:[EDX+4] ;->CX=0000
  00469CD8   66:894C24 2A     MOV WORD PTR SS:[ESP+2A],CX ;Stack SS:[0017D136]
  00469CDD   8B97 88000000    MOV EDX,DWORD PTR DS:[EDI+88] ;static player.0x88->EDX=FFFFFFFF (tag?)
  00469CE3   895424 2C        MOV DWORD PTR SS:[ESP+2C],EDX ;Stack SS:[0017D138]
  00469CE7   8A87 8C000000    MOV AL,BYTE PTR DS:[EDI+8C] ;static player.0x8C ->AL=00
  00469CED   884424 30        MOV BYTE PTR SS:[ESP+30],AL ;Stack SS:[0017D13C]
  00469CF1   833D 98CC6800 04 CMP DWORD PTR DS:[68CC98],4 ;2==4?
  00469CF8   8B4F 6C          MOV ECX,DWORD PTR DS:[EDI+6C] ;static player.SpeedModifier ->ECX=3F800000
  00469CFB   894C24 34        MOV DWORD PTR SS:[ESP+34],ECX ;Stack SS:[0017D140]
  00469CFF   75 1D            JNZ SHORT haloce.00469D1E
  ;00469D01   0FBF4C24 26      MOVSX ECX,WORD PTR SS:[ESP+26]
  ;00469D06   B8 89888888      MOV EAX,88888889
  ;00469D0B   F7E9             IMUL ECX
  ;00469D0D   03D1             ADD EDX,ECX
  ;00469D0F   C1FA 04          SAR EDX,4
  ;00469D12   8BC2             MOV EAX,EDX
  ;00469D14   C1E8 1F          SHR EAX,1F
  ;00469D17   03C2             ADD EAX,EDX
  ;00469D19   66:894424 26     MOV WORD PTR SS:[ESP+26],AX
  00469D1E   8D4C24 10        LEA ECX,DWORD PTR SS:[ESP+10] ;->ECX=0017D11C
  00469D22   6A FF            PUSH -1
  00469D24   8DBB E0BA6400    LEA EDI,DWORD PTR DS:[EBX+64BAE0] ;EBX=00000000 ->EDI=0064BAE0
  00469D2A   51               PUSH ECX
  00469D2B   8BD5             MOV EDX,EBP ;->EDX=00000001
  00469D2D   8D4424 44        LEA EAX,DWORD PTR SS:[ESP+44] ;->EAX=0017D148 
  00469D31   8BCF             MOV ECX,EDI ;->ECX=0064BAE0
  00469D33   E8 28000000      CALL haloce.00469D60
  ->
   00469D60   83EC 0C          SUB ESP,0C
   00469D63   56               PUSH ESI
   00469D64   8B7424 18        MOV ESI,DWORD PTR SS:[ESP+18] ;->ESI=FFFFFFFF
   00469D68   6A 00            PUSH 0
   00469D6A   85D2             TEST EDX,EDX
   00469D6C   6A 01            PUSH 1
   00469D6E   8D5424 10        LEA EDX,DWORD PTR SS:[ESP+10] ;->EDX=0017D0F8
   00469D72   75 1C            JNZ SHORT haloce.00469D90
   ;00469D74   894424 0C        MOV DWORD PTR SS:[ESP+C],EAX
   ;00469D78   F7D8             NEG EAX
   ;00469D7A   6A 00            PUSH 0
   ;00469D7C   894C24 14        MOV DWORD PTR SS:[ESP+14],ECX
   ;00469D80   1BC0             SBB EAX,EAX
   ;00469D82   8D4C24 10        LEA ECX,DWORD PTR SS:[ESP+10]
   ;00469D86   52               PUSH EDX
   ;00469D87   23C1             AND EAX,ECX
   ;00469D89   50               PUSH EAX
   ;00469D8A   6A 15            PUSH 15
   ;00469D8C   6A 00            PUSH 0
   ;00469D8E   EB 25            JMP SHORT haloce.00469DB5
   00469D90   894424 10        MOV DWORD PTR SS:[ESP+10],EAX ;Stack SS:[0017D0F8]
   00469D94   894C24 0C        MOV DWORD PTR SS:[ESP+C],ECX ;Stack SS:[0017D0F4]
   00469D98   8B4C24 1C        MOV ECX,DWORD PTR SS:[ESP+1C] ;->ECX=0017D11C
   00469D9C   F7D8             NEG EAX ;->EAX=FFE82EB8
   00469D9E   894C24 14        MOV DWORD PTR SS:[ESP+14],ECX ;Stack SS:[0017D0FC]
   00469DA2   1BC0             SBB EAX,EAX ;->EAX=FFFFFFFF
   00469DA4   23C2             AND EAX,EDX ;->EAX=0017D0F8
   00469DA6   8D4C24 0C        LEA ECX,DWORD PTR SS:[ESP+C] ;->ECX=0017D0F4
   00469DAA   51               PUSH ECX
   00469DAB   8D5424 18        LEA EDX,DWORD PTR SS:[ESP+18] ;->EDX=0017D0FC
   00469DAF   52               PUSH EDX
   00469DB0   50               PUSH EAX
   00469DB1   6A 15            PUSH 15
   00469DB3   6A 01            PUSH 1
   00469DB5   B8 20CE8000      MOV EAX,haloce.0080CE20
   00469DBA   BA F87F0000      MOV EDX,7FF8
   00469DBF   E8 0C680800      CALL haloce.004F05D0 ;build network packet
   00469DC4   83C4 1C          ADD ESP,1C
   00469DC7   85C0             TEST EAX,EAX ;EAX=0000002D
   00469DC9   7E 3F            JLE SHORT haloce.00469E0A
   00469DCB   83FE FF          CMP ESI,-1 ;ESI=FFFFFFFF
   00469DCE   6A 03            PUSH 3
   00469DD0   6A 00            PUSH 0
   00469DD2   6A 00            PUSH 0
   00469DD4   6A 01            PUSH 1
   00469DD6   75 1A            JNZ SHORT haloce.00469DF2
   00469DD8   8B0D 84736B00    MOV ECX,DWORD PTR DS:[6B7384]            ; haloce.007FC340
   00469DDE   68 20CE8000      PUSH haloce.0080CE20
   00469DE3   6A 01            PUSH 1
   00469DE5   E8 46B40700      CALL haloce.004E5230 ;send to all clients (players)
   00469DEA   83C4 18          ADD ESP,18 ;EAX=00000001
   00469DED   5E               POP ESI
   00469DEE   83C4 0C          ADD ESP,0C
   00469DF1   C3               RETN
   ;00469DF2   50               PUSH EAX
   ;00469DF3   68 20CE8000      PUSH haloce.0080CE20
   ;00469DF8   8BC6             MOV EAX,ESI
   ;00469DFA   8B35 84736B00    MOV ESI,DWORD PTR DS:[6B7384]            ; haloce.007FC340
   ;00469E00   6A 01            PUSH 1
   ;00469E02   E8 D9B20700      CALL haloce.004E50E0 ;send to specific player
   ;00469E07   83C4 1C          ADD ESP,1C
   ;00469E0A   5E               POP ESI
   ;00469E0B   83C4 0C          ADD ESP,0C
   ;00469E0E   C3               RETN
   <-
  00469D38   83C4 08          ADD ESP,8
  00469D3B   83FD 01          CMP EBP,1 ;1==1?
  00469D3E   75 0B            JNZ SHORT haloce.00469D4B
  00469D40   B9 0A000000      MOV ECX,0A
  00469D45   8D7424 10        LEA ESI,DWORD PTR SS:[ESP+10] ;->ESI=0017D11C
  00469D49   F3:A5            REP MOVS DWORD PTR ES:[EDI],DWORD PTR DS:[ESI];EDI=0064BAE0
  00469D4B   5F               POP EDI
  00469D4C   5E               POP ESI
  00469D4D   5D               POP EBP
  00469D4E   5B               POP EBX
  00469D4F   83C4 28          ADD ESP,28
  00469D52   C3               RETN
 <-
 00469A1D   83C4 04          ADD ESP,4
 00469A20   83C6 30          ADD ESI,30 ;->ESI=0064BB08
 00469A23   47               INC EDI ;->EDI=00000001
 00469A24   81FE D8BD6400    CMP ESI,haloce.0064BDD8
 00469A2A  ^7C E4            JL SHORT haloce.00469A10
 ...^ ;16 times (16 players?)
 00469A2C   A1 44CD6800      MOV EAX,DWORD PTR DS:[68CD44] ;->EAX=006236B8
 00469A31   8B80 90000000    MOV EAX,DWORD PTR DS:[EAX+90] ;->EAX=00472800
 00469A37   85C0             TEST EAX,EAX
 00469A39   5F               POP EDI
 00469A3A   5E               POP ESI
 00469A3B   74 0B            JE SHORT haloce.00469A48
 00469A3D   8B4C24 04        MOV ECX,DWORD PTR SS:[ESP+4] ;->ECX=FFFFFFFF
 00469A41   51               PUSH ECX
 00469A42   53               PUSH EBX
 00469A43   FFD0             CALL EAX ;00472800
 ->
  00472800   8B4424 04        MOV EAX,DWORD PTR SS:[ESP+4] ;->EAX=FFFFFFFF
  00472804   83EC 08          SUB ESP,8
  00472807   85C0             TEST EAX,EAX
  00472809   56               PUSH ESI
  0047280A   75 35            JNZ SHORT haloce.00472841
  ;0047280C   6A 00            PUSH 0
  ;0047280E   6A 01            PUSH 1
  ;00472810   6A 00            PUSH 0
  ;00472812   8D4424 1C        LEA EAX,DWORD PTR SS:[ESP+1C]
  ;00472816   50               PUSH EAX
  ;00472817   6A 00            PUSH 0
  ;00472819   6A 10            PUSH 10
  ;0047281B   6A 00            PUSH 0
  ;0047281D   BA F87F0000      MOV EDX,7FF8
  ;00472822   B8 20CE8000      MOV EAX,haloce.0080CE20
  ;00472827   C74424 2C E05581>MOV DWORD PTR SS:[ESP+2C],haloce.008155E>
  ;0047282F   C74424 20 000000>MOV DWORD PTR SS:[ESP+20],0
  ;00472837   E8 94DD0700      CALL haloce.004F05D0;build network packet
  ;0047283C   83C4 1C          ADD ESP,1C
  ;0047283F   EB 49            JMP SHORT haloce.0047288A
  00472841   57               PUSH EDI
  00472842   6A 00            PUSH 0
  00472844   6A 01            PUSH 1
  00472846   8D4C24 1C        LEA ECX,DWORD PTR SS:[ESP+1C];->ECX=0017D14C
  0047284A   51               PUSH ECX
  0047284B   8D5424 14        LEA EDX,DWORD PTR SS:[ESP+14];->EDX=0017D140
  0047284F   52               PUSH EDX
  00472850   6A 00            PUSH 0
  00472852   6A 10            PUSH 10
  00472854   BF E0558100      MOV EDI,haloce.008155E0
  00472859   BE 28C36400      MOV ESI,haloce.0064C328
  0047285E   6A 01            PUSH 1
  00472860   BA F87F0000      MOV EDX,7FF8
  00472865   B8 20CE8000      MOV EAX,haloce.0080CE20
  0047286A   897C24 30        MOV DWORD PTR SS:[ESP+30],EDI;Stack SS:[0017D14C]
  0047286E   897424 24        MOV DWORD PTR SS:[ESP+24],ESI;Stack SS:[0017D140]
  00472872   C74424 28 00000000   MOV DWORD PTR SS:[ESP+28],0;Stack SS:[0017D144]
  0047287A   E8 51DD0700      CALL haloce.004F05D0;build network packet
  0047287F   B9 20000000      MOV ECX,20
  00472884   83C4 1C          ADD ESP,1C
  00472887   F3:A5            REP MOVS DWORD PTR ES:[EDI],DWORD PTR DS:[ESI]
  00472889   5F               POP EDI
  0047288A   85C0             TEST EAX,EAX;EAX=00000000
  0047288C   7E 43            JLE SHORT haloce.004728D1
  ;0047288E   8B4C24 14        MOV ECX,DWORD PTR SS:[ESP+14]
  ;00472892   83F9 FF          CMP ECX,-1
  ;00472895   6A 03            PUSH 3
  ;00472897   6A 00            PUSH 0
  ;00472899   6A 00            PUSH 0
  ;0047289B   6A 01            PUSH 1
  ;0047289D   75 1A            JNZ SHORT haloce.004728B9
  ;0047289F   8B0D 84736B00    MOV ECX,DWORD PTR DS:[6B7384]            ; haloce.007FC340
  ;004728A5   68 20CE8000      PUSH haloce.0080CE20
  ;004728AA   6A 01            PUSH 1
  ;004728AC   E8 7F290700      CALL haloce.004E5230;send to all players
  ;004728B1   83C4 18          ADD ESP,18
  ;004728B4   5E               POP ESI
  ;004728B5   83C4 08          ADD ESP,8
  ;004728B8   C3               RETN
  ;004728B9   8B35 84736B00    MOV ESI,DWORD PTR DS:[6B7384]            ; haloce.007FC340
  ;004728BF   50               PUSH EAX
  ;004728C0   68 20CE8000      PUSH haloce.0080CE20
  ;004728C5   6A 01            PUSH 1
  ;004728C7   8BC1             MOV EAX,ECX
  ;004728C9   E8 12280700      CALL haloce.004E50E0;send to specific player
  ;004728CE   83C4 1C          ADD ESP,1C
  004728D1   5E               POP ESI
  004728D2   83C4 08          ADD ESP,8
  004728D5   C3               RETN
 <-
 00469A45   83C4 08          ADD ESP,8
 00469A48   C3               RETN
<-
004610D1   83C4 04          ADD ESP,4
004610D4   8B15 C0558100    MOV EDX,DWORD PTR DS:[8155C0] ;"players"
004610DA   8B42 34          MOV EAX,DWORD PTR DS:[EDX+34]
004610DD   8A8C28 D5000000  MOV CL,BYTE PTR DS:[EAX+EBP+D5] ;static player.0xD5 ->CL=00
004610E4   84C9             TEST CL,CL
004610E6   0F85 04050000    JNZ haloce.004615F0
004610EC   83FF FF          CMP EDI,-1 ;EDI=FFFFFFFF
004610EF   75 3D            JNZ SHORT haloce.0046112E
004610F1   8B8424 24080000  MOV EAX,DWORD PTR SS:[ESP+824] ;1st param (killed-by)obj tag ->EAX=E2750006
004610F8   3BC7             CMP EAX,EDI
004610FA   74 75            JE SHORT haloce.00461171
004610FC   8B15 B0B37F00    MOV EDX,DWORD PTR DS:[7FB3B0] ;"object"
00461102   25 FFFF0000      AND EAX,0FFFF
00461107   8D0C40           LEA ECX,DWORD PTR DS:[EAX+EAX*2]
0046110A   8B42 34          MOV EAX,DWORD PTR DS:[EDX+34]
0046110D   8B4C88 08        MOV ECX,DWORD PTR DS:[EAX+ECX*4+8] ;object ->ECX=40059CA0
00461111   0FBF81 B4000000  MOVSX EAX,WORD PTR DS:[ECX+B4] ;object.0xB4 ->EAX=00000001
00461118   83E8 00          SUB EAX,0
0046111B   74 0A            JE SHORT haloce.00461127
0046111D   48               DEC EAX ;->EAX=00000000
0046111E   75 51            JNZ SHORT haloce.00461171
00461120   BE 03000000      MOV ESI,3
00461125   EB 4F            JMP SHORT haloce.00461176
;00461127   BE 02000000      MOV ESI,2
;0046112C   EB 48            JMP SHORT haloce.00461176
;0046112E   3BBC24 28080000  CMP EDI,DWORD PTR SS:[ESP+828]
;00461135   74 15            JE SHORT haloce.0046114C
;00461137   8A8C24 2C080000  MOV CL,BYTE PTR SS:[ESP+82C]
;0046113E   33D2             XOR EDX,EDX
;00461140   84C9             TEST CL,CL
;00461142   0F95C2           SETNE DL
;00461145   83C2 04          ADD EDX,4
;00461148   8BF2             MOV ESI,EDX
;0046114A   EB 2A            JMP SHORT haloce.00461176
;0046114C   8B8424 28080000  MOV EAX,DWORD PTR SS:[ESP+828]
;00461153   57               PUSH EDI
;00461154   50               PUSH EAX
;00461155   6A FF            PUSH -1
;00461157   B3 01            MOV BL,1
;00461159   BE 06000000      MOV ESI,6
;0046115E   E8 BD090000      CALL haloce.00461B20
;00461163   83C4 0C          ADD ESP,0C
;00461166   5B               POP EBX
;00461167   5F               POP EDI
;00461168   5E               POP ESI
;00461169   5D               POP EBP
;0046116A   81C4 10080000    ADD ESP,810
;00461170   C3               RETN
;00461171   BE 01000000      MOV ESI,1
00461176   8BAC24 28080000  MOV EBP,DWORD PTR SS:[ESP+828] ;2nd param static player tag ->EBP=EC700000
0046117D   57               PUSH EDI
0046117E   55               PUSH EBP
0046117F   57               PUSH EDI
00461180   B3 01            MOV BL,1
00461182   E8 99090000      CALL haloce.00461B20
->
 00461B20   83EC 10          SUB ESP,10
 00461B23   A1 C0558100      MOV EAX,DWORD PTR DS:[8155C0];"players"
 00461B28   55               PUSH EBP
 00461B29   8B6C24 20        MOV EBP,DWORD PTR SS:[ESP+20];->EBP=FFFFFFFF
 00461B2D   894424 04        MOV DWORD PTR SS:[ESP+4],EAX
 00461B31   57               PUSH EDI
 00461B32   35 72657469      XOR EAX,69746572;->EAX=295ECAE6
 00461B37   8D7C24 08        LEA EDI,DWORD PTR SS:[ESP+8]
 00461B3B   66:C74424 0C 000>MOV WORD PTR SS:[ESP+C],0
 00461B42   C74424 10 FFFFFF>MOV DWORD PTR SS:[ESP+10],-1
 00461B4A   894424 14        MOV DWORD PTR SS:[ESP+14],EAX
 00461B4E   E8 BD1F0700      CALL haloce.004D3B10 ;get valid static player
 00461B53   85C0             TEST EAX,EAX ;402AAFCC
 00461B55   74 44            JE SHORT haloce.00461B9B
 ;00461B57   EB 07            JMP SHORT haloce.00461B60
 ;00461B59   8DA424 00000000  LEA ESP,DWORD PTR SS:[ESP] ;filler?
 00461B60   8B7C24 10        MOV EDI,DWORD PTR SS:[ESP+10] ;->EDI=EC700000
 00461B64   3B7C24 1C        CMP EDI,DWORD PTR SS:[ESP+1C] ;EC700000 == FFFFFFFF ?
 00461B68   74 24            JE SHORT haloce.00461B8E
 00461B6A   8B4424 20        MOV EAX,DWORD PTR SS:[ESP+20] ;->EAX=EC700000
 00461B6E   83F8 FF          CMP EAX,-1
 00461B71   75 0A            JNZ SHORT haloce.00461B7D
 ;00461B73   3BF0             CMP ESI,EAX
 ;00461B75   74 17            JE SHORT haloce.00461B8E
 ;00461B77   53               PUSH EBX
 ;00461B78   55               PUSH EBP
 ;00461B79   56               PUSH ESI
 ;00461B7A   57               PUSH EDI
 ;00461B7B   EB 09            JMP SHORT haloce.00461B86
 00461B7D   83FE FF          CMP ESI,-1
 00461B80   74 0C            JE SHORT haloce.00461B8E
 00461B82   53               PUSH EBX
 00461B83   55               PUSH EBP
 00461B84   56               PUSH ESI
 00461B85   50               PUSH EAX
 00461B86   E8 15FCFFFF      CALL haloce.004617A0 ;sigh...this is soooo freaking long....
 ->
  004617A0   81EC 00080000        SUB ESP,800
  004617A6   83FF FF              CMP EDI,-1
  004617A9   55                   PUSH EBP
  004617AA   8BAC24 0C080000      MOV EBP,DWORD PTR SS:[ESP+80C] ;->EBP=00000003
  004617B1   0F84 1D010000        JE haloce.004618D4
  004617B7   8BCF                 MOV ECX,EDI ;->ECX=EC700000
  004617B9   C1F9 10              SAR ECX,10 ;->ECX=FFFFEC70
  004617BC   66:85FF              TEST DI,DI
  004617BF   0F8C 0F010000        JL haloce.004618D4
  004617C5   A1 C0558100          MOV EAX,DWORD PTR DS:[8155C0] ;"players"
  004617CA   66:3B78 20           CMP DI,WORD PTR DS:[EAX+20] ;index within range?
  004617CE   0F8D 00010000        JGE haloce.004618D4
  004617D4   53                   PUSH EBX
  004617D5   8B58 34              MOV EBX,DWORD PTR DS:[EAX+34]
  004617D8   56                   PUSH ESI
  004617D9   0FBF70 22            MOVSX ESI,WORD PTR DS:[EAX+22]
  004617DD   0FBFD7               MOVSX EDX,DI
  004617E0   0FAFF2               IMUL ESI,EDX
  004617E3   66:8B041E            MOV AX,WORD PTR DS:[ESI+EBX]
  004617E7   03F3                 ADD ESI,EBX ;static player 0 ->ESI=402AAFCC
  004617E9   66:85C0              TEST AX,AX;EC70
  004617EC   0F84 E0000000        JE haloce.004618D2
  004617F2   66:85C9              TEST CX,CX
  004617F5   74 09                JE SHORT haloce.00461800
  004617F7   66:3BC1              CMP AX,CX
  004617FA   0F85 D2000000        JNZ haloce.004618D2
  00461800   66:837E 02 FF        CMP WORD PTR DS:[ESI+2],0FFFF ;static player.IsLocalPlayer (0)
  00461805   0F84 99000000        JE haloce.004618A4
  0046180B   A1 44CD6800          MOV EAX,DWORD PTR DS:[68CD44] ;->EAX=006236B8
  00461810   8B40 6C              MOV EAX,DWORD PTR DS:[EAX+6C] ;->EAX=004723D0
  00461813   85C0                 TEST EAX,EAX
  00461815   74 24                JE SHORT haloce.0046183B
  00461817   8B9424 18080000      MOV EDX,DWORD PTR SS:[ESP+818] ;->EDX=FFFFFFFF
  0046181E   68 00040000          PUSH 400
  00461823   8D4C24 10            LEA ECX,DWORD PTR SS:[ESP+10] ;->ECX=0017C920
  00461827   51                   PUSH ECX
  00461828   8B8C24 18080000      MOV ECX,DWORD PTR SS:[ESP+818] ;->ECX=EC700000
  0046182F   52                   PUSH EDX
  00461830   55                   PUSH EBP
  00461831   51                   PUSH ECX
  00461832   FFD0                 CALL EAX ;004723D0
  ->
   004723D0   8B4424 08            MOV EAX,DWORD PTR SS:[ESP+8] ;->EAX=00000003
   004723D4   83F8 16              CMP EAX,16
   004723D7   53                   PUSH EBX
   004723D8   56                   PUSH ESI
   004723D9   57                   PUSH EDI
   004723DA   B3 01                MOV BL,1
   004723DC   74 68                JE SHORT haloce.00472446
   004723DE   83F8 20              CMP EAX,20
   004723E1   0F85 B8010000        JNZ haloce.0047259F
   ;004723E7   8B5424 18            MOV EDX,DWORD PTR SS:[ESP+18]
   ;004723EB   8B35 C0558100        MOV ESI,DWORD PTR DS:[8155C0]
   ;004723F1   E8 CA170600          CALL haloce.004D3BC0
   ;004723F6   8BF0                 MOV ESI,EAX
   ;004723F8   85F6                 TEST ESI,ESI
   ;004723FA   0F84 9F010000        JE haloce.0047259F
   ;00472400   68 18036000          PUSH haloce.00600318              ; ASCII "ui\multiplayer_game_text"
   ;00472405   BF 72747375          MOV EDI,75737472
   ;0047240A   E8 9105FDFF          CALL haloce.004429A0
   ;0047240F   83C4 04              ADD ESP,4
   ;00472412   83F8 FF              CMP EAX,-1
   ;00472415   74 0E                JE SHORT haloce.00472425
   ;00472417   BA B4000000          MOV EDX,0B4
   ;0047241C   8BC8                 MOV ECX,EAX
   ;0047241E   E8 6D8F0E00          CALL haloce.0055B390
   ;00472423   EB 05                JMP SHORT haloce.0047242A
   ;00472425   B8 14036000          MOV EAX,haloce.00600314
   ;0047242A   8B5424 20            MOV EDX,DWORD PTR SS:[ESP+20]
   ;0047242E   83C6 04              ADD ESI,4
   ;00472431   56                   PUSH ESI
   ;00472432   50                   PUSH EAX
   ;00472433   8B4424 24            MOV EAX,DWORD PTR SS:[ESP+24]
   ;00472437   50                   PUSH EAX
   ;00472438   E8 A38F0E00          CALL haloce.0055B3E0
   ;0047243D   83C4 0C              ADD ESP,0C
   ;00472440   5F                   POP EDI
   ;00472441   5E                   POP ESI
   ;00472442   8AC3                 MOV AL,BL
   ;00472444   5B                   POP EBX
   ;00472445   C3                   RETN
   ;00472446   8B7424 10            MOV ESI,DWORD PTR SS:[ESP+10]
   ;0047244A   83FE FF              CMP ESI,-1
   ;0047244D   0F84 4C010000        JE haloce.0047259F
   ;00472453   8BD6                 MOV EDX,ESI
   ;00472455   C1FA 10              SAR EDX,10
   ;00472458   66:85F6              TEST SI,SI
   ;0047245B   0F8C 3E010000        JL haloce.0047259F
   ;00472461   8B0D C0558100        MOV ECX,DWORD PTR DS:[8155C0]
   ;00472467   66:3B71 20           CMP SI,WORD PTR DS:[ECX+20]
   ;0047246B   0F8D 2E010000        JGE haloce.0047259F
   ;00472471   0FBF41 22            MOVSX EAX,WORD PTR DS:[ECX+22]
   ;00472475   0FBFFE               MOVSX EDI,SI
   ;00472478   0FAFC7               IMUL EAX,EDI
   ;0047247B   0341 34              ADD EAX,DWORD PTR DS:[ECX+34]
   ;0047247E   66:8B00              MOV AX,WORD PTR DS:[EAX]
   ;00472481   66:85C0              TEST AX,AX
   ;00472484   0F84 15010000        JE haloce.0047259F
   ;0047248A   66:85D2              TEST DX,DX
   ;0047248D   74 09                JE SHORT haloce.00472498
   ;0047248F   66:3BC2              CMP AX,DX
   ;00472492   0F85 07010000        JNZ haloce.0047259F
   ;00472498   A0 9CCC6800          MOV AL,BYTE PTR DS:[68CC9C]
   ;0047249D   84C0                 TEST AL,AL
   ;0047249F   55                   PUSH EBP
   ;004724A0   6A 01                PUSH 1
   ;004724A2   56                   PUSH ESI
   ;004724A3   0F84 80000000        JE haloce.00472529
   ;004724A9   E8 A220FFFF          CALL haloce.00464550
   ;004724AE   50                   PUSH EAX
   ;004724AF   E8 0C20FFFF          CALL haloce.004644C0
   ;004724B4   68 18036000          PUSH haloce.00600318              ; ASCII "ui\multiplayer_game_text"
   ;004724B9   BF 72747375          MOV EDI,75737472
   ;004724BE   8BE8                 MOV EBP,EAX
   ;004724C0   E8 DB04FDFF          CALL haloce.004429A0
   ;004724C5   83C4 10              ADD ESP,10
   ;004724C8   83F8 FF              CMP EAX,-1
   ;004724CB   74 0E                JE SHORT haloce.004724DB
   ;004724CD   BA B5000000          MOV EDX,0B5
   ;004724D2   8BC8                 MOV ECX,EAX
   ;004724D4   E8 B78E0E00          CALL haloce.0055B390
   ;004724D9   EB 05                JMP SHORT haloce.004724E0
   ;004724DB   B8 14036000          MOV EAX,haloce.00600314
   ;004724E0   8B0D C0CC6800        MOV ECX,DWORD PTR DS:[68CCC0]
   ;004724E6   51                   PUSH ECX
   ;004724E7   8B0D C0558100        MOV ECX,DWORD PTR DS:[8155C0]
   ;004724ED   8B49 34              MOV ECX,DWORD PTR DS:[ECX+34]
   ;004724F0   81E6 FFFF0000        AND ESI,0FFFF
   ;004724F6   8BD6                 MOV EDX,ESI
   ;004724F8   C1E2 09              SHL EDX,9
   ;004724FB   8B540A 20            MOV EDX,DWORD PTR DS:[EDX+ECX+20]
   ;004724FF   8B0C95 28C36400      MOV ECX,DWORD PTR DS:[EDX*4+64C328]
   ;00472506   8B14B5 68C36400      MOV EDX,DWORD PTR DS:[ESI*4+64C368]
   ;0047250D   51                   PUSH ECX
   ;0047250E   52                   PUSH EDX
   ;0047250F   8B5424 30            MOV EDX,DWORD PTR SS:[ESP+30]
   ;00472513   55                   PUSH EBP
   ;00472514   50                   PUSH EAX
   ;00472515   8B4424 34            MOV EAX,DWORD PTR SS:[ESP+34]
   ;00472519   50                   PUSH EAX
   ;0047251A   E8 C18E0E00          CALL haloce.0055B3E0
   ;0047251F   83C4 18              ADD ESP,18
   ;00472522   5D                   POP EBP
   ;00472523   5F                   POP EDI
   ;00472524   5E                   POP ESI
   ;00472525   8AC3                 MOV AL,BL
   ;00472527   5B                   POP EBX
   ;00472528   C3                   RETN
   ;00472529   E8 2220FFFF          CALL haloce.00464550
   ;0047252E   50                   PUSH EAX
   ;0047252F   E8 8C1FFFFF          CALL haloce.004644C0
   ;00472534   68 18036000          PUSH haloce.00600318              ; ASCII "ui\multiplayer_game_text"
   ;00472539   BF 72747375          MOV EDI,75737472
   ;0047253E   8BE8                 MOV EBP,EAX
   ;00472540   E8 5B04FDFF          CALL haloce.004429A0
   ;00472545   83C4 10              ADD ESP,10
   ;00472548   83F8 FF              CMP EAX,-1
   ;0047254B   74 0E                JE SHORT haloce.0047255B
   ;0047254D   BA B6000000          MOV EDX,0B6
   ;00472552   8BC8                 MOV ECX,EAX
   ;00472554   E8 378E0E00          CALL haloce.0055B390
   ;00472559   EB 05                JMP SHORT haloce.00472560
   ;0047255B   B8 14036000          MOV EAX,haloce.00600314
   ;00472560   8B0D C0CC6800        MOV ECX,DWORD PTR DS:[68CCC0]
   ;00472566   8B15 C0558100        MOV EDX,DWORD PTR DS:[8155C0]
   ;0047256C   51                   PUSH ECX
   ;0047256D   8B4A 34              MOV ECX,DWORD PTR DS:[EDX+34]
   ;00472570   81E6 FFFF0000        AND ESI,0FFFF
   ;00472576   C1E6 09              SHL ESI,9
   ;00472579   8B540E 20            MOV EDX,DWORD PTR DS:[ESI+ECX+20]
   ;0047257D   8B0C95 28C36400      MOV ECX,DWORD PTR DS:[EDX*4+64C32>
   ;00472584   8B5424 24            MOV EDX,DWORD PTR SS:[ESP+24]
   ;00472588   51                   PUSH ECX
   ;00472589   55                   PUSH EBP
   ;0047258A   50                   PUSH EAX
   ;0047258B   52                   PUSH EDX
   ;0047258C   8B5424 38            MOV EDX,DWORD PTR SS:[ESP+38]
   ;00472590   E8 4B8E0E00          CALL haloce.0055B3E0
   ;00472595   83C4 14              ADD ESP,14
   ;00472598   5D                   POP EBP
   ;00472599   5F                   POP EDI
   ;0047259A   5E                   POP ESI
   ;0047259B   8AC3                 MOV AL,BL
   ;0047259D   5B                   POP EBX
   ;0047259E   C3                   RETN
   0047259F   5F                   POP EDI
   004725A0   5E                   POP ESI
   004725A1   32C0                 XOR AL,AL
   004725A3   5B                   POP EBX
   004725A4   C3                   RETN
  <-
  00461834   83C4 14              ADD ESP,14
  00461837   84C0                 TEST AL,AL ;00
  00461839   75 25                JNZ SHORT haloce.00461860
  0046183B   8B9424 18080000      MOV EDX,DWORD PTR SS:[ESP+818] ;->EDX=FFFFFFFF
  00461842   8B8424 10080000      MOV EAX,DWORD PTR SS:[ESP+810] ;->EAX=EC700000
  00461849   68 00040000          PUSH 400
  0046184E   52                   PUSH EDX
  0046184F   55                   PUSH EBP
  00461850   8D5C24 18            LEA EBX,DWORD PTR SS:[ESP+18] ;->EBX=0017C920
  00461854   E8 67DAFFFF          CALL haloce.0045F2C0
  ->
   0045F2C0   81EC 90000000    SUB ESP,90
   0045F2C6   55               PUSH EBP
   0045F2C7   8BAC24 9C000000  MOV EBP,DWORD PTR SS:[ESP+9C] ;->EBP=FFFFFFFF
   0045F2CE   56               PUSH ESI
   0045F2CF   8BB424 A4000000  MOV ESI,DWORD PTR SS:[ESP+A4] ;->ESI=00000400
   0045F2D6   57               PUSH EDI
   0045F2D7   8BF8             MOV EDI,EAX ;->EDI=EC700000
   0045F2D9   A1 44CD6800      MOV EAX,DWORD PTR DS:[68CD44];->EAX=006236B8
   0045F2DE   85C0             TEST EAX,EAX
   0045F2E0   C64424 0F 01     MOV BYTE PTR SS:[ESP+F],1;Stack SS:[0017C877]=42 ('B')
   0045F2E5   74 79            JE SHORT haloce.0045F360
   0045F2E7   8B80 84000000    MOV EAX,DWORD PTR DS:[EAX+84];->EAX=00472790
   0045F2ED   85C0             TEST EAX,EAX
   0045F2EF   74 6F            JE SHORT haloce.0045F360
   0045F2F1   6A 01            PUSH 1
   0045F2F3   FFD0             CALL EAX;00472790
   ->
    00472790   8B4C24 04            MOV ECX,DWORD PTR SS:[ESP+4];->ECX=00000001
    00472794   32C0                 XOR AL,AL
    00472796   49                   DEC ECX;->ECX=00000000
    00472797   75 02                JNZ SHORT haloce.0047279B
    00472799   B0 01                MOV AL,1
    0047279B   C3                   RETN
   <-
   0045F2F5   83C4 04          ADD ESP,4
   0045F2F8   84C0             TEST AL,AL
   0045F2FA   74 64            JE SHORT haloce.0045F360
   0045F2FC   8B8424 A0000000  MOV EAX,DWORD PTR SS:[ESP+A0];->EAX=00000003
   0045F303   83C0 F9          ADD EAX,-7;->EAX=FFFFFFFC
   0045F306   83F8 05          CMP EAX,5
   0045F309   77 55            JA SHORT haloce.0045F360
   ;0045F30B   FF2485 C0FD4500            JMP DWORD PTR DS:[EAX*4+45FDC0]
   ;0045F312   C78424 A0000000 0E000000   MOV DWORD PTR SS:[ESP+A0],0E
   ;0045F31D   EB 4F                      JMP SHORT haloce.0045F36E
   ;0045F31F   C78424 A0000000 0F000000   MOV DWORD PTR SS:[ESP+A0],0F
   ;0045F32A   EB 42                      JMP SHORT haloce.0045F36E
   ;0045F32C   C78424 A0000000 10000000   MOV DWORD PTR SS:[ESP+A0],10
   ;0045F337   EB 35                      JMP SHORT haloce.0045F36E
   ;0045F339   C78424 A0000000 11000000   MOV DWORD PTR SS:[ESP+A0],11
   ;0045F344   EB 28                      JMP SHORT haloce.0045F36E
   ;0045F346   C78424 A0000000 12000000   MOV DWORD PTR SS:[ESP+A0],12
   ;0045F351   EB 1B                      JMP SHORT haloce.0045F36E
   ;0045F353   C78424 A0000000 13000000   MOV DWORD PTR SS:[ESP+A0],13
   ;0045F35E   EB 0E                      JMP SHORT haloce.0045F36E
   0045F360   83BC24 A0000000 1F         CMP DWORD PTR SS:[ESP+A0],1F
   0045F368   0F87 300A0000    JA haloce.0045FD9E
   0045F36E   8B8424 A0000000  MOV EAX,DWORD PTR SS:[ESP+A0];->EAX=00000003
   0045F375   FF2485 D8FD4500  JMP DWORD PTR DS:[EAX*4+45FDD8];DS:[0045FDE4] (haloce.0045F484) switch
   ;0045F37C   8B35 C0558100    MOV ESI,DWORD PTR DS:[8155C0]
   ;0045F382   8BD7             MOV EDX,EDI
   ;0045F384   E8 37480700      CALL haloce.004D3BC0
   ;0045F389   8BF0             MOV ESI,EAX
   ;0045F38B   85F6             TEST ESI,ESI
   ;0045F38D   0F84 0B0A0000    JE haloce.0045FD9E
   ;0045F393   68 18036000      PUSH haloce.00600318                     ; ASCII "ui\multiplayer_game_text"
   ;0045F398   BF 72747375      MOV EDI,75737472
   ;0045F39D   E8 FE35FEFF      CALL haloce.004429A0
   ;0045F3A2   83C4 04          ADD ESP,4
   ;0045F3A5   83F8 FF          CMP EAX,-1
   ;0045F3A8   0F84 EB020000    JE haloce.0045F699
   ;0045F3AE   BA 4A000000      MOV EDX,4A
   ;0045F3B3   8BC8             MOV ECX,EAX
   ;0045F3B5   E8 D6BF0F00      CALL haloce.0055B390
   ;0045F3BA   8B9424 A8000000  MOV EDX,DWORD PTR SS:[ESP+A8]
   ;0045F3C1   83C6 04          ADD ESI,4
   ;0045F3C4   56               PUSH ESI
   ;0045F3C5   50               PUSH EAX
   ;0045F3C6   53               PUSH EBX
   ;0045F3C7   E8 14C00F00      CALL haloce.0055B3E0
   ;0045F3CC   83C4 0C          ADD ESP,0C
   ;0045F3CF   E9 CF090000      JMP haloce.0045FDA3
   ;0045F3D4   8B35 C0558100    MOV ESI,DWORD PTR DS:[8155C0]
   ;0045F3DA   8BD7             MOV EDX,EDI
   ;0045F3DC   E8 DF470700      CALL haloce.004D3BC0
   ;0045F3E1   8BF0             MOV ESI,EAX
   ;0045F3E3   85F6             TEST ESI,ESI
   ;0045F3E5   0F84 B3090000    JE haloce.0045FD9E
   ;0045F3EB   68 18036000      PUSH haloce.00600318                     ; ASCII "ui\multiplayer_game_text"
   ;0045F3F0   BF 72747375      MOV EDI,75737472
   ;0045F3F5   E8 A635FEFF      CALL haloce.004429A0
   ;0045F3FA   83C4 04          ADD ESP,4
   ;0045F3FD   83F8 FF          CMP EAX,-1
   ;0045F400   0F84 93020000    JE haloce.0045F699
   ;0045F406   BA 4B000000      MOV EDX,4B
   ;0045F40B   8BC8             MOV ECX,EAX
   ;0045F40D   E8 7EBF0F00      CALL haloce.0055B390
   ;0045F412   8B9424 A8000000  MOV EDX,DWORD PTR SS:[ESP+A8]
   ;0045F419   83C6 04          ADD ESI,4
   ;0045F41C   56               PUSH ESI
   ;0045F41D   50               PUSH EAX
   ;0045F41E   53               PUSH EBX
   ;0045F41F   E8 BCBF0F00      CALL haloce.0055B3E0
   ;0045F424   83C4 0C          ADD ESP,0C
   ;0045F427   E9 77090000      JMP haloce.0045FDA3
   ;0045F42C   8B35 C0558100    MOV ESI,DWORD PTR DS:[8155C0]
   ;0045F432   8BD7             MOV EDX,EDI
   ;0045F434   E8 87470700      CALL haloce.004D3BC0
   ;0045F439   8BF0             MOV ESI,EAX
   ;0045F43B   85F6             TEST ESI,ESI
   ;0045F43D   0F84 5B090000    JE haloce.0045FD9E
   ;0045F443   68 18036000      PUSH haloce.00600318                     ; ASCII "ui\multiplayer_game_text"
   ;0045F448   BF 72747375      MOV EDI,75737472
   ;0045F44D   E8 4E35FEFF      CALL haloce.004429A0
   ;0045F452   83C4 04          ADD ESP,4
   ;0045F455   83F8 FF          CMP EAX,-1
   ;0045F458   0F84 3B020000    JE haloce.0045F699
   ;0045F45E   BA 4C000000      MOV EDX,4C
   ;0045F463   8BC8             MOV ECX,EAX
   ;0045F465   E8 26BF0F00      CALL haloce.0055B390
   ;0045F46A   8B9424 A8000000  MOV EDX,DWORD PTR SS:[ESP+A8]
   ;0045F471   83C6 04          ADD ESI,4
   ;0045F474   56               PUSH ESI
   ;0045F475   50               PUSH EAX
   ;0045F476   53               PUSH EBX
   ;0045F477   E8 64BF0F00      CALL haloce.0055B3E0
   ;0045F47C   83C4 0C          ADD ESP,0C
   ;0045F47F   E9 1F090000      JMP haloce.0045FDA3
   0045F484   8B35 C0558100    MOV ESI,DWORD PTR DS:[8155C0] ;"players"
   0045F48A   8BD7             MOV EDX,EDI ;->EDX=EC700000
   0045F48C   E8 2F470700      CALL haloce.004D3BC0
   ->
    004D3BC0   33C0               XOR EAX,EAX
    004D3BC2   83FA FF            CMP EDX,-1
    004D3BC5   74 33              JE SHORT haloce.004D3BFA
    004D3BC7   57                 PUSH EDI
    004D3BC8   8BFA               MOV EDI,EDX;->EDI=EC700000
    004D3BCA   C1FF 10            SAR EDI,10;->EDI=FFFFEC70
    004D3BCD   66:85D2            TEST DX,DX
    004D3BD0   7C 27              JL SHORT haloce.004D3BF9
    004D3BD2   66:3B56 20         CMP DX,WORD PTR DS:[ESI+20];index within range? (geeze, how many times has it checked this....)
    004D3BD6   7D 21              JGE SHORT haloce.004D3BF9
    004D3BD8   0FBF4E 22          MOVSX ECX,WORD PTR DS:[ESI+22]
    004D3BDC   0FBFD2             MOVSX EDX,DX
    004D3BDF   0FAFCA             IMUL ECX,EDX
    004D3BE2   034E 34            ADD ECX,DWORD PTR DS:[ESI+34] ;static player p0 ->ECX=402AAFCC
    004D3BE5   66:8B11            MOV DX,WORD PTR DS:[ECX];valid id?
    004D3BE8   66:85D2            TEST DX,DX
    004D3BEB   74 0C              JE SHORT haloce.004D3BF9
    004D3BED   66:85FF            TEST DI,DI
    004D3BF0   74 05              JE SHORT haloce.004D3BF7
    004D3BF2   66:3BD7            CMP DX,DI
    004D3BF5   75 02              JNZ SHORT haloce.004D3BF9
    004D3BF7   8BC1               MOV EAX,ECX
    004D3BF9   5F                 POP EDI
    004D3BFA   C3                 RETN
   <-
   0045F491   8BF0             MOV ESI,EAX;->ESI=402AAFCC (static player p0 for the millionth time...)
   0045F493   85F6             TEST ESI,ESI
   0045F495   0F84 03090000    JE haloce.0045FD9E
   0045F49B   68 18036000      PUSH haloce.00600318  ; ASCII "ui\multiplayer_game_text"
   0045F4A0   BF 72747375      MOV EDI,75737472 ;'rtsu'?
   0045F4A5   E8 F634FEFF      CALL haloce.004429A0
   ->
    004429A0   A0 60306400        MOV AL,BYTE PTR DS:[643060];->AL=01
    004429A5   53                 PUSH EBX
    004429A6   83CB FF            OR EBX,FFFFFFFF
    004429A9   84C0               TEST AL,AL
    004429AB   55                 PUSH EBP
    004429AC   8B6C24 0C          MOV EBP,DWORD PTR SS:[ESP+C];->EBP=00600318 "ui\multiplayer_game_text"
    004429B0   74 5B              JE SHORT haloce.00442A0D
    004429B2   A1 64386400        MOV EAX,DWORD PTR DS:[643864] ;->EAX=40440000
    004429B7   8B48 0C            MOV ECX,DWORD PTR DS:[EAX+C] ;->ECX=00000997
    004429BA   56                 PUSH ESI
    004429BB   33F6               XOR ESI,ESI
    004429BD   85C9               TEST ECX,ECX
    004429BF   7E 33              JLE SHORT haloce.004429F4
    004429C1   33C0               XOR EAX,EAX
    004429C3   8B0D E46D8100      MOV ECX,DWORD PTR DS:[816DE4] ;important ptr->ECX=40440028
    004429C9   C1E0 05            SHL EAX,5
    004429CC   03C1               ADD EAX,ECX ;->EAX=40440028
    004429CE   3B38               CMP EDI,DWORD PTR DS:[EAX];DS:[40440028]=73636E72
    004429D0   75 11              JNZ SHORT haloce.004429E3
    ...;when EAX=4044CC88, 4044CCC8, 4044EDE8
    004429D2   8B50 10            MOV EDX,DWORD PTR DS:[EAX+10] ;->EDX=40463F48 "ui\hud\hud_item_messages"
    004429D5   52                 PUSH EDX ;40463F48 "ui\hud\hud_item_messages"
    004429D6   55                 PUSH EBP ;00600318 "ui\multiplayer_game_text"
    004429D7   E8 3FBA1800        CALL haloce.005CE41B
    004429DC   83C4 08            ADD ESP,8
    004429DF   85C0               TEST EAX,EAX
    004429E1   74 17              JE SHORT haloce.004429FA
    ...
    004429E3   8B0D 64386400      MOV ECX,DWORD PTR DS:[643864] ;->ECX=40440000
    004429E9   8B51 0C            MOV EDX,DWORD PTR DS:[ECX+C] ;->EDX=00000997
    004429EC   46                 INC ESI ;->ESI=00000001
    004429ED   0FBFC6             MOVSX EAX,SI
    004429F0   3BC2               CMP EAX,EDX
    004429F2  ^7C CF              JL SHORT haloce.004429C3
    ...^ ;
    004429F4   5E                 POP ESI
    004429F5   5D                 POP EBP
    004429F6   8BC3               MOV EAX,EBX
    004429F8   5B                 POP EBX
    004429F9   C3                 RETN
    004429FA   A1 E46D8100        MOV EAX,DWORD PTR DS:[816DE4]
    004429FF   0FBFD6             MOVSX EDX,SI
    00442A02   5E                 POP ESI
    00442A03   C1E2 05            SHL EDX,5
    00442A06   8B4402 0C          MOV EAX,DWORD PTR DS:[EDX+EAX+C]
    00442A0A   5D                 POP EBP
    00442A0B   5B                 POP EBX
    00442A0C   C3                 RETN
    ;00442A0D   5D                 POP EBP
    ;00442A0E   8BC3               MOV EAX,EBX
    ;00442A10   5B                 POP EBX
    ;00442A11   C3                 RETN
   <-
   0045F4AA   83C4 04          ADD ESP,4
   0045F4AD   83F8 FF          CMP EAX,-1 ;EAX=E8E4076E msg tag?
   0045F4B0   0F84 E3010000    JE haloce.0045F699
   0045F4B6   BA 4D000000      MOV EDX,4D
   0045F4BB   8BC8             MOV ECX,EAX
   0045F4BD   E8 CEBE0F00      CALL haloce.0055B390
   ->
    0055B390   83F9 FF            CMP ECX,-1
    0055B393   B8 EC166100        MOV EAX,haloce.006116EC ; UNICODE "<missing string>"
    0055B398   74 3E              JE SHORT haloce.0055B3D8
    0055B39A   81E1 FFFF0000      AND ECX,0FFFF
    0055B3A0   56                 PUSH ESI
    0055B3A1   8B35 E46D8100      MOV ESI,DWORD PTR DS:[816DE4] ;->ESI=40440028
    0055B3A7   C1E1 05            SHL ECX,5
    0055B3AA   66:85D2            TEST DX,DX
    0055B3AD   8B4C31 14          MOV ECX,DWORD PTR DS:[ECX+ESI+14];->ECX=4099B4B0
    0055B3B1   7C 24              JL SHORT haloce.0055B3D7
    0055B3B3   8B31               MOV ESI,DWORD PTR DS:[ECX] ;->ESI=000000C2
    0055B3B5   0FBFD2             MOVSX EDX,DX
    0055B3B8   3BD6               CMP EDX,ESI
    0055B3BA   7D 1B              JGE SHORT haloce.0055B3D7
    0055B3BC   8B49 04            MOV ECX,DWORD PTR DS:[ECX+4] ;->ECX=4099B4BC
    0055B3BF   8D1492             LEA EDX,DWORD PTR DS:[EDX+EDX*4];->EDX=00000181
    0055B3C2   8D1491             LEA EDX,DWORD PTR DS:[ECX+EDX*4];->EDX=4099BAC0
    0055B3C5   8B0A               MOV ECX,DWORD PTR DS:[EDX];->EDX=00000036
    0055B3C7   85C9               TEST ECX,ECX
    0055B3C9   7E 0C              JLE SHORT haloce.0055B3D7 ;ahhh so thats what all this is for...
    0055B3CB   8B42 0C            MOV EAX,DWORD PTR DS:[EDX+C];->EAX=4099CB78 L"%s was killed by a vehicle"
    0055B3CE   D1E9               SHR ECX,1;->ECX=0000001B
    0055B3D0   66:C74448 FE 0000  MOV WORD PTR DS:[EAX+ECX*2-2],0 ;DS:[4099CBAC]
    0055B3D7   5E                 POP ESI
    0055B3D8   C3                 RETN
   <-
   0045F4C2   8B9424 A8000000  MOV EDX,DWORD PTR SS:[ESP+A8] ;->EDX=00000400
   0045F4C9   83C6 04          ADD ESI,4 ;static player.player_name0->ESI=402AAFD0 L"Krwlng"
   0045F4CC   56               PUSH ESI ;L"Krwlng"
   0045F4CD   50               PUSH EAX ;L"%s was killed by a vehicle"
   0045F4CE   53               PUSH EBX ;0017C920 buffer to store str
   0045F4CF   E8 0CBF0F00      CALL haloce.0055B3E0
   ->
    0055B3E0   8B4C24 08          MOV ECX,DWORD PTR SS:[ESP+8];->ECX=4099CB78
    0055B3E4   8D4424 0C          LEA EAX,DWORD PTR SS:[ESP+C];->EAX=0017C864
    0055B3E8   50                 PUSH EAX ;ptr to player name
    0055B3E9   8B4424 08          MOV EAX,DWORD PTR SS:[ESP+8] ;->EAX=0017C920
    0055B3ED   51                 PUSH ECX;L"%s was killed by a vehicle"
    0055B3EE   52                 PUSH EDX;00000400 max size
    0055B3EF   50                 PUSH EAX;0017C920 buffer to store str
    0055B3F0   E8 18170700        CALL haloce.005CCB0D
    0055B3F5   83C4 10            ADD ESP,10
    0055B3F8   C3                 RETN
   <-
   0045F4D4   83C4 0C          ADD ESP,0C
   0045F4D7   E9 C7080000      JMP haloce.0045FDA3
   ;0045F4DC   8B35 C0558100    MOV ESI,DWORD PTR DS:[8155C0]
   ;0045F4E2   8BD5             MOV EDX,EBP
   ;0045F4E4   E8 D7460700      CALL haloce.004D3BC0
   ; 0045F4E9   8BD7             MOV EDX,EDI
   ; 0045F4EB   8BE8             MOV EBP,EAX
   ; 0045F4ED   E8 CE460700      CALL haloce.004D3BC0
   ; 0045F4F2   8BF0             MOV ESI,EAX
   ; 0045F4F4   85F6             TEST ESI,ESI
   ; 0045F4F6   0F84 A2080000    JE haloce.0045FD9E
   ; 0045F4FC   85ED             TEST EBP,EBP
   ; 0045F4FE   0F84 9A080000    JE haloce.0045FD9E
   ; 0045F504   68 18036000      PUSH haloce.00600318                     ; ASCII "ui\multiplayer_game_text"
   ; 0045F509   BF 72747375      MOV EDI,75737472
   ; 0045F50E   E8 8D34FEFF      CALL haloce.004429A0
   ; 0045F513   83C4 04          ADD ESP,4
   ; 0045F516   83F8 FF          CMP EAX,-1
   ; 0045F519   74 0E            JE SHORT haloce.0045F529
   ; 0045F51B   BA 4E000000      MOV EDX,4E
   ; 0045F520   8BC8             MOV ECX,EAX
   ; 0045F522   E8 69BE0F00      CALL haloce.0055B390
   ; 0045F527   EB 05            JMP SHORT haloce.0045F52E
   ; 0045F529   B8 14036000      MOV EAX,haloce.00600314
   ; 0045F52E   8B9424 A8000000  MOV EDX,DWORD PTR SS:[ESP+A8]
   ; 0045F535   83C5 04          ADD EBP,4
   ; 0045F538   55               PUSH EBP
   ; 0045F539   83C6 04          ADD ESI,4
   ; 0045F53C   56               PUSH ESI
   ; 0045F53D   50               PUSH EAX
   ; 0045F53E   53               PUSH EBX
   ; 0045F53F   E8 9CBE0F00      CALL haloce.0055B3E0
   ; 0045F544   83C4 10          ADD ESP,10
   ; 0045F547   E9 57080000      JMP haloce.0045FDA3
   ; 0045F54C   8B35 C0558100    MOV ESI,DWORD PTR DS:[8155C0]
   ; 0045F552   8BD5             MOV EDX,EBP
   ; 0045F554   E8 67460700      CALL haloce.004D3BC0
   ; 0045F559   8BD7             MOV EDX,EDI
   ; 0045F55B   8BE8             MOV EBP,EAX
   ; 0045F55D   E8 5E460700      CALL haloce.004D3BC0
   ; 0045F562   8BF0             MOV ESI,EAX
   ; 0045F564   85F6             TEST ESI,ESI
   ; 0045F566   0F84 32080000    JE haloce.0045FD9E
   ; 0045F56C   85ED             TEST EBP,EBP
   ; 0045F56E   0F84 2A080000    JE haloce.0045FD9E
   ; 0045F574   68 18036000      PUSH haloce.00600318                     ; ASCII "ui\multiplayer_game_text"
   ; 0045F579   BF 72747375      MOV EDI,75737472
   ; 0045F57E   E8 1D34FEFF      CALL haloce.004429A0
   ; 0045F583   83C4 04          ADD ESP,4
   ; 0045F586   83F8 FF          CMP EAX,-1
   ; 0045F589  ^74 9E            JE SHORT haloce.0045F529
   ; 0045F58B   BA 4F000000      MOV EDX,4F
   ; 0045F590   8BC8             MOV ECX,EAX
   ; 0045F592   E8 F9BD0F00      CALL haloce.0055B390
   ; 0045F597  ^EB 95            JMP SHORT haloce.0045F52E
   ; 0045F599   8B35 C0558100    MOV ESI,DWORD PTR DS:[8155C0]
   ; 0045F59F   8BD5             MOV EDX,EBP
   ; 0045F5A1   E8 1A460700      CALL haloce.004D3BC0
   ; 0045F5A6   8BF0             MOV ESI,EAX
   ; 0045F5A8   85F6             TEST ESI,ESI
   ; 0045F5AA   0F84 EE070000    JE haloce.0045FD9E
   ; 0045F5B0   68 18036000      PUSH haloce.00600318                     ; ASCII "ui\multiplayer_game_text"
   ; 0045F5B5   BF 72747375      MOV EDI,75737472
   ; 0045F5BA   E8 E133FEFF      CALL haloce.004429A0
   ; 0045F5BF   83C4 04          ADD ESP,4
   ; 0045F5C2   83F8 FF          CMP EAX,-1
   ; 0045F5C5   0F84 CE000000    JE haloce.0045F699
   ; 0045F5CB   BA 50000000      MOV EDX,50
   ; 0045F5D0   8BC8             MOV ECX,EAX
   ; 0045F5D2   E8 B9BD0F00      CALL haloce.0055B390
   ; 0045F5D7   8B9424 A8000000  MOV EDX,DWORD PTR SS:[ESP+A8]
   ; 0045F5DE   83C6 04          ADD ESI,4
   ; 0045F5E1   56               PUSH ESI
   ; 0045F5E2   50               PUSH EAX
   ; 0045F5E3   53               PUSH EBX
   ; 0045F5E4   E8 F7BD0F00      CALL haloce.0055B3E0
   ; 0045F5E9   83C4 0C          ADD ESP,0C
   ; 0045F5EC   E9 B2070000      JMP haloce.0045FDA3
   ; 0045F5F1   8B35 C0558100    MOV ESI,DWORD PTR DS:[8155C0]
   ; 0045F5F7   8BD7             MOV EDX,EDI
   ; 0045F5F9   E8 C2450700      CALL haloce.004D3BC0
   ; 0045F5FE   8BF0             MOV ESI,EAX
   ; 0045F600   85F6             TEST ESI,ESI
   ; 0045F602   0F84 96070000    JE haloce.0045FD9E
   ; 0045F608   68 18036000      PUSH haloce.00600318                     ; ASCII "ui\multiplayer_game_text"
   ; 0045F60D   BF 72747375      MOV EDI,75737472
   ; 0045F612   E8 8933FEFF      CALL haloce.004429A0
   ; 0045F617   83C4 04          ADD ESP,4
   ; 0045F61A   83F8 FF          CMP EAX,-1
   ; 0045F61D   74 7A            JE SHORT haloce.0045F699
   ; 0045F61F   BA 51000000      MOV EDX,51
   ; 0045F624   8BC8             MOV ECX,EAX
   ; 0045F626   E8 65BD0F00      CALL haloce.0055B390
   ; 0045F62B   8B9424 A8000000  MOV EDX,DWORD PTR SS:[ESP+A8]
   ; 0045F632   83C6 04          ADD ESI,4
   ; 0045F635   56               PUSH ESI
   ; 0045F636   50               PUSH EAX
   ; 0045F637   53               PUSH EBX
   ; 0045F638   E8 A3BD0F00      CALL haloce.0055B3E0
   ; 0045F63D   83C4 0C          ADD ESP,0C
   ; 0045F640   E9 5E070000      JMP haloce.0045FDA3
   ; 0045F645   8B35 C0558100    MOV ESI,DWORD PTR DS:[8155C0]
   ; 0045F64B   8BD5             MOV EDX,EBP
   ; 0045F64D   E8 6E450700      CALL haloce.004D3BC0
   ; 0045F652   8BF0             MOV ESI,EAX
   ; 0045F654   85F6             TEST ESI,ESI
   ; 0045F656   0F84 42070000    JE haloce.0045FD9E
   ; 0045F65C   68 18036000      PUSH haloce.00600318                     ; ASCII "ui\multiplayer_game_text"
   ; 0045F661   BF 72747375      MOV EDI,75737472
   ; 0045F666   E8 3533FEFF      CALL haloce.004429A0
   ; 0045F66B   83C4 04          ADD ESP,4
   ; 0045F66E   83F8 FF          CMP EAX,-1
   ; 0045F671   74 26            JE SHORT haloce.0045F699
   ; 0045F673   BA 52000000      MOV EDX,52
   ; 0045F678   8BC8             MOV ECX,EAX
   ; 0045F67A   E8 11BD0F00      CALL haloce.0055B390
   ; 0045F67F   8B9424 A8000000  MOV EDX,DWORD PTR SS:[ESP+A8]
   ; 0045F686   83C6 04          ADD ESI,4
   ; 0045F689   56               PUSH ESI
   ; 0045F68A   50               PUSH EAX
   ; 0045F68B   53               PUSH EBX
   ; 0045F68C   E8 4FBD0F00      CALL haloce.0055B3E0
   ; 0045F691   83C4 0C          ADD ESP,0C
   ; 0045F694   E9 0A070000      JMP haloce.0045FDA3
   ; 0045F699   8B9424 A8000000  MOV EDX,DWORD PTR SS:[ESP+A8]
   ; 0045F6A0   83C6 04          ADD ESI,4
   ; 0045F6A3   B8 14036000      MOV EAX,haloce.00600314
   ; 0045F6A8   56               PUSH ESI
   ; 0045F6A9   50               PUSH EAX
   ; 0045F6AA   53               PUSH EBX
   ; 0045F6AB   E8 30BD0F00      CALL haloce.0055B3E0
   ; 0045F6B0   83C4 0C          ADD ESP,0C
   ; 0045F6B3   E9 EB060000      JMP haloce.0045FDA3
   ; 0045F6B8   68 18036000      PUSH haloce.00600318                     ; ASCII "ui\multiplayer_game_text"
   ; 0045F6BD   BF 72747375      MOV EDI,75737472
   ; 0045F6C2   E8 D932FEFF      CALL haloce.004429A0
   ; 0045F6C7   83C4 04          ADD ESP,4
   ; 0045F6CA   83F8 FF          CMP EAX,-1
   ; 0045F6CD   74 20            JE SHORT haloce.0045F6EF
   ; 0045F6CF   BA 53000000      MOV EDX,53
   ; 0045F6D4   8BC8             MOV ECX,EAX
   ; 0045F6D6   E8 B5BC0F00      CALL haloce.0055B390
   ; 0045F6DB   8B8C24 A8000000  MOV ECX,DWORD PTR SS:[ESP+A8]
   ; 0045F6E2   51               PUSH ECX
   ; 0045F6E3   50               PUSH EAX
   ; 0045F6E4   53               PUSH EBX
   ; 0045F6E5   E8 39D71600      CALL haloce.005CCE23
   ; 0045F6EA   E9 34020000      JMP haloce.0045F923
   ; 0045F6EF   8B8C24 A8000000  MOV ECX,DWORD PTR SS:[ESP+A8]
   ; 0045F6F6   51               PUSH ECX
   ; 0045F6F7   B8 14036000      MOV EAX,haloce.00600314
   ; 0045F6FC   50               PUSH EAX
   ; 0045F6FD   53               PUSH EBX
   ; 0045F6FE   E8 20D71600      CALL haloce.005CCE23
   ; 0045F703   E9 1B020000      JMP haloce.0045F923
   ; 0045F708   68 18036000      PUSH haloce.00600318                     ; ASCII "ui\multiplayer_game_text"
   ; 0045F70D   BF 72747375      MOV EDI,75737472
   ; 0045F712   E8 8932FEFF      CALL haloce.004429A0
   ; 0045F717   83C4 04          ADD ESP,4
   ; 0045F71A   83F8 FF          CMP EAX,-1
   ; 0045F71D   74 20            JE SHORT haloce.0045F73F
   ; 0045F71F   BA 54000000      MOV EDX,54
   ; 0045F724   8BC8             MOV ECX,EAX
   ; 0045F726   E8 65BC0F00      CALL haloce.0055B390
   ; 0045F72B   8B9424 A8000000  MOV EDX,DWORD PTR SS:[ESP+A8]
   ; 0045F732   52               PUSH EDX
   ; 0045F733   50               PUSH EAX
   ; 0045F734   53               PUSH EBX
   ; 0045F735   E8 E9D61600      CALL haloce.005CCE23
   ; 0045F73A   E9 56020000      JMP haloce.0045F995
   ; 0045F73F   8B9424 A8000000  MOV EDX,DWORD PTR SS:[ESP+A8]
   ; 0045F746   52               PUSH EDX
   ; 0045F747   B8 14036000      MOV EAX,haloce.00600314
   ; 0045F74C   50               PUSH EAX
   ; 0045F74D   53               PUSH EBX
   ; 0045F74E   E8 D0D61600      CALL haloce.005CCE23
   ; 0045F753   E9 3D020000      JMP haloce.0045F995
   ; 0045F758   68 18036000      PUSH haloce.00600318                     ; ASCII "ui\multiplayer_game_text"
   ; 0045F75D   BF 72747375      MOV EDI,75737472
   ; 0045F762   E8 3932FEFF      CALL haloce.004429A0
   ; 0045F767   83C4 04          ADD ESP,4
   ; 0045F76A   83F8 FF          CMP EAX,-1
   ; 0045F76D   74 20            JE SHORT haloce.0045F78F
   ; 0045F76F   BA 55000000      MOV EDX,55
   ; 0045F774   8BC8             MOV ECX,EAX
   ; 0045F776   E8 15BC0F00      CALL haloce.0055B390
   ; 0045F77B   8B8C24 A8000000  MOV ECX,DWORD PTR SS:[ESP+A8]
   ; 0045F782   51               PUSH ECX
   ; 0045F783   50               PUSH EAX
   ; 0045F784   53               PUSH EBX
   ; 0045F785   E8 99D61600      CALL haloce.005CCE23
   ; 0045F78A   E9 79020000      JMP haloce.0045FA08
   ; 0045F78F   8B8C24 A8000000  MOV ECX,DWORD PTR SS:[ESP+A8]
   ; 0045F796   51               PUSH ECX
   ; 0045F797   B8 14036000      MOV EAX,haloce.00600314
   ; 0045F79C   50               PUSH EAX
   ; 0045F79D   53               PUSH EBX
   ; 0045F79E   E8 80D61600      CALL haloce.005CCE23
   ; 0045F7A3   E9 60020000      JMP haloce.0045FA08
   ; 0045F7A8   68 18036000      PUSH haloce.00600318                     ; ASCII "ui\multiplayer_game_text"
   ; 0045F7AD   BF 72747375      MOV EDI,75737472
   ; 0045F7B2   E8 E931FEFF      CALL haloce.004429A0
   ; 0045F7B7   83C4 04          ADD ESP,4
   ; 0045F7BA   83F8 FF          CMP EAX,-1
   ; 0045F7BD   74 20            JE SHORT haloce.0045F7DF
   ; 0045F7BF   BA 56000000      MOV EDX,56
   ; 0045F7C4   8BC8             MOV ECX,EAX
   ; 0045F7C6   E8 C5BB0F00      CALL haloce.0055B390
   ; 0045F7CB   8B9424 A8000000  MOV EDX,DWORD PTR SS:[ESP+A8]
   ; 0045F7D2   52               PUSH EDX
   ; 0045F7D3   50               PUSH EAX
   ; 0045F7D4   53               PUSH EBX
   ; 0045F7D5   E8 49D61600      CALL haloce.005CCE23
   ; 0045F7DA   E9 9C020000      JMP haloce.0045FA7B
   ; 0045F7DF   8B9424 A8000000  MOV EDX,DWORD PTR SS:[ESP+A8]
   ; 0045F7E6   52               PUSH EDX
   ; 0045F7E7   B8 14036000      MOV EAX,haloce.00600314
   ; 0045F7EC   50               PUSH EAX
   ; 0045F7ED   53               PUSH EBX
   ; 0045F7EE   E8 30D61600      CALL haloce.005CCE23
   ; 0045F7F3   E9 83020000      JMP haloce.0045FA7B
   ; 0045F7F8   68 18036000      PUSH haloce.00600318                     ; ASCII "ui\multiplayer_game_text"
   ; 0045F7FD   BF 72747375      MOV EDI,75737472
   ; 0045F802   E8 9931FEFF      CALL haloce.004429A0
   ; 0045F807   83C4 04          ADD ESP,4
   ; 0045F80A   83F8 FF          CMP EAX,-1
   ; 0045F80D   74 20            JE SHORT haloce.0045F82F
   ; 0045F80F   BA 57000000      MOV EDX,57
   ; 0045F814   8BC8             MOV ECX,EAX
   ; 0045F816   E8 75BB0F00      CALL haloce.0055B390
   ; 0045F81B   8B8C24 A8000000  MOV ECX,DWORD PTR SS:[ESP+A8]
   ; 0045F822   51               PUSH ECX
   ; 0045F823   50               PUSH EAX
   ; 0045F824   53               PUSH EBX
   ; 0045F825   E8 F9D51600      CALL haloce.005CCE23
   ; 0045F82A   E9 BE020000      JMP haloce.0045FAED
   ; 0045F82F   8B8C24 A8000000  MOV ECX,DWORD PTR SS:[ESP+A8]
   ; 0045F836   51               PUSH ECX
   ; 0045F837   B8 14036000      MOV EAX,haloce.00600314
   ; 0045F83C   50               PUSH EAX
   ; 0045F83D   53               PUSH EBX
   ; 0045F83E   E8 E0D51600      CALL haloce.005CCE23
   ; 0045F843   E9 A5020000      JMP haloce.0045FAED
   ; 0045F848   8B35 C0558100    MOV ESI,DWORD PTR DS:[8155C0]
   ; 0045F84E   8BD5             MOV EDX,EBP
   ; 0045F850   E8 6B430700      CALL haloce.004D3BC0
   ; 0045F855   85C0             TEST EAX,EAX
   ; 0045F857   0F84 41050000    JE haloce.0045FD9E
   ; 0045F85D   8B7E 34          MOV EDI,DWORD PTR DS:[ESI+34]
   ; 0045F860   81E5 FFFF0000    AND EBP,0FFFF
   ; 0045F866   C1E5 09          SHL EBP,9
   ; 0045F869   03EF             ADD EBP,EDI
   ; 0045F86B   68 18036000      PUSH haloce.00600318                     ; ASCII "ui\multiplayer_game_text"
   ; 0045F870   BF 72747375      MOV EDI,75737472
   ; 0045F875   E8 2631FEFF      CALL haloce.004429A0
   ; 0045F87A   83C4 04          ADD ESP,4
   ; 0045F87D   83F8 FF          CMP EAX,-1
   ; 0045F880   74 26            JE SHORT haloce.0045F8A8
   ; 0045F882   BA 58000000      MOV EDX,58
   ; 0045F887   8BC8             MOV ECX,EAX
   ; 0045F889   E8 02BB0F00      CALL haloce.0055B390
   ; 0045F88E   8B9424 A8000000  MOV EDX,DWORD PTR SS:[ESP+A8]
   ; 0045F895   83C5 04          ADD EBP,4
   ; 0045F898   55               PUSH EBP
   ; 0045F899   50               PUSH EAX
   ; 0045F89A   53               PUSH EBX
   ; 0045F89B   E8 40BB0F00      CALL haloce.0055B3E0
   ; 0045F8A0   83C4 0C          ADD ESP,0C
   ; 0045F8A3   E9 FB040000      JMP haloce.0045FDA3
   ; 0045F8A8   8B9424 A8000000  MOV EDX,DWORD PTR SS:[ESP+A8]
   ; 0045F8AF   83C5 04          ADD EBP,4
   ; 0045F8B2   B8 14036000      MOV EAX,haloce.00600314
   ; 0045F8B7   55               PUSH EBP
   ; 0045F8B8   50               PUSH EAX
   ; 0045F8B9   53               PUSH EBX
   ; 0045F8BA   E8 21BB0F00      CALL haloce.0055B3E0
   ; 0045F8BF   83C4 0C          ADD ESP,0C
   ; 0045F8C2   E9 DC040000      JMP haloce.0045FDA3
   ; 0045F8C7   8B35 C0558100    MOV ESI,DWORD PTR DS:[8155C0]
   ; 0045F8CD   8BD7             MOV EDX,EDI
   ; 0045F8CF   E8 EC420700      CALL haloce.004D3BC0
   ; 0045F8D4   85C0             TEST EAX,EAX
   ; 0045F8D6   0F84 C2040000    JE haloce.0045FD9E
   ; 0045F8DC   8B15 44CD6800    MOV EDX,DWORD PTR DS:[68CD44]
   ; 0045F8E2   6A 01            PUSH 1
   ; 0045F8E4   57               PUSH EDI
   ; 0045F8E5   FF52 4C          CALL DWORD PTR DS:[EDX+4C]
   ; 0045F8E8   68 18036000      PUSH haloce.00600318                     ; ASCII "ui\multiplayer_game_text"
   ; 0045F8ED   BF 72747375      MOV EDI,75737472
   ; 0045F8F2   8BF0             MOV ESI,EAX
   ; 0045F8F4   E8 A730FEFF      CALL haloce.004429A0
   ; 0045F8F9   83C4 0C          ADD ESP,0C
   ; 0045F8FC   83F8 FF          CMP EAX,-1
   ; 0045F8FF   74 0E            JE SHORT haloce.0045F90F
   ; 0045F901   BA 59000000      MOV EDX,59
   ; 0045F906   8BC8             MOV ECX,EAX
   ; 0045F908   E8 83BA0F00      CALL haloce.0055B390
   ; 0045F90D   EB 05            JMP SHORT haloce.0045F914
   ; 0045F90F   B8 14036000      MOV EAX,haloce.00600314
   ; 0045F914   8B9424 A8000000  MOV EDX,DWORD PTR SS:[ESP+A8]
   ; 0045F91B   56               PUSH ESI
   ; 0045F91C   50               PUSH EAX
   ; 0045F91D   53               PUSH EBX
   ; 0045F91E   E8 BDBA0F00      CALL haloce.0055B3E0
   ; 0045F923   6A 00            PUSH 0
   ; 0045F925   BE 10000000      MOV ESI,10
   ; 0045F92A   83CF FF          OR EDI,FFFFFFFF
   ; 0045F92D   E8 3EF30000      CALL haloce.0046EC70
   ; 0045F932   83C4 10          ADD ESP,10
   ; 0045F935   E9 69040000      JMP haloce.0045FDA3
   ; 0045F93A   8B35 C0558100    MOV ESI,DWORD PTR DS:[8155C0]
   ; 0045F940   8BD7             MOV EDX,EDI
   ; 0045F942   E8 79420700      CALL haloce.004D3BC0
   ; 0045F947   85C0             TEST EAX,EAX
   ; 0045F949   0F84 4F040000    JE haloce.0045FD9E
   ; 0045F94F   A1 44CD6800      MOV EAX,DWORD PTR DS:[68CD44]
   ; 0045F954   6A 01            PUSH 1
   ; 0045F956   57               PUSH EDI
   ; 0045F957   FF50 4C          CALL DWORD PTR DS:[EAX+4C]
   ; 0045F95A   68 18036000      PUSH haloce.00600318                     ; ASCII "ui\multiplayer_game_text"
   ; 0045F95F   BF 72747375      MOV EDI,75737472
   ; 0045F964   8BF0             MOV ESI,EAX
   ; 0045F966   E8 3530FEFF      CALL haloce.004429A0
   ; 0045F96B   83C4 0C          ADD ESP,0C
   ; 0045F96E   83F8 FF          CMP EAX,-1
   ; 0045F971   74 0E            JE SHORT haloce.0045F981
   ; 0045F973   BA 5A000000      MOV EDX,5A
   ; 0045F978   8BC8             MOV ECX,EAX
   ; 0045F97A   E8 11BA0F00      CALL haloce.0055B390
   ; 0045F97F   EB 05            JMP SHORT haloce.0045F986
   ; 0045F981   B8 14036000      MOV EAX,haloce.00600314
   ; 0045F986   8B9424 A8000000  MOV EDX,DWORD PTR SS:[ESP+A8]
   ; 0045F98D   56               PUSH ESI
   ; 0045F98E   50               PUSH EAX
   ; 0045F98F   53               PUSH EBX
   ; 0045F990   E8 4BBA0F00      CALL haloce.0055B3E0
   ; 0045F995   6A 00            PUSH 0
   ; 0045F997   BE 0F000000      MOV ESI,0F
   ; 0045F99C   83CF FF          OR EDI,FFFFFFFF
   ; 0045F99F   E8 CCF20000      CALL haloce.0046EC70
   ; 0045F9A4   83C4 10          ADD ESP,10
   ; 0045F9A7   E9 F7030000      JMP haloce.0045FDA3
   ; 0045F9AC   8B35 C0558100    MOV ESI,DWORD PTR DS:[8155C0]
   ; 0045F9B2   8BD7             MOV EDX,EDI
   ; 0045F9B4   E8 07420700      CALL haloce.004D3BC0
   ; 0045F9B9   85C0             TEST EAX,EAX
   ; 0045F9BB   0F84 DD030000    JE haloce.0045FD9E
   ; 0045F9C1   8B0D 44CD6800    MOV ECX,DWORD PTR DS:[68CD44]
   ; 0045F9C7   6A 01            PUSH 1
   ; 0045F9C9   57               PUSH EDI
   ; 0045F9CA   FF51 4C          CALL DWORD PTR DS:[ECX+4C]
   ; 0045F9CD   68 18036000      PUSH haloce.00600318                     ; ASCII "ui\multiplayer_game_text"
   ; 0045F9D2   BF 72747375      MOV EDI,75737472
   ; 0045F9D7   8BF0             MOV ESI,EAX
   ; 0045F9D9   E8 C22FFEFF      CALL haloce.004429A0
   ; 0045F9DE   83C4 0C          ADD ESP,0C
   ; 0045F9E1   83F8 FF          CMP EAX,-1
   ; 0045F9E4   74 0E            JE SHORT haloce.0045F9F4
   ; 0045F9E6   BA 5B000000      MOV EDX,5B
   ; 0045F9EB   8BC8             MOV ECX,EAX
   ; 0045F9ED   E8 9EB90F00      CALL haloce.0055B390
   ; 0045F9F2   EB 05            JMP SHORT haloce.0045F9F9
   ; 0045F9F4   B8 14036000      MOV EAX,haloce.00600314
   ; 0045F9F9   8B9424 A8000000  MOV EDX,DWORD PTR SS:[ESP+A8]
   ; 0045FA00   56               PUSH ESI
   ; 0045FA01   50               PUSH EAX
   ; 0045FA02   53               PUSH EBX
   ; 0045FA03   E8 D8B90F00      CALL haloce.0055B3E0
   ; 0045FA08   6A 00            PUSH 0
   ; 0045FA0A   BE 0E000000      MOV ESI,0E
   ; 0045FA0F   83CF FF          OR EDI,FFFFFFFF
   ; 0045FA12   E8 59F20000      CALL haloce.0046EC70
   ; 0045FA17   83C4 10          ADD ESP,10
   ; 0045FA1A   E9 84030000      JMP haloce.0045FDA3
   ; 0045FA1F   8B35 C0558100    MOV ESI,DWORD PTR DS:[8155C0]
   ; 0045FA25   8BD7             MOV EDX,EDI
   ; 0045FA27   E8 94410700      CALL haloce.004D3BC0
   ; 0045FA2C   85C0             TEST EAX,EAX
   ; 0045FA2E   0F84 6A030000    JE haloce.0045FD9E
   ; 0045FA34   8B15 44CD6800    MOV EDX,DWORD PTR DS:[68CD44]
   ; 0045FA3A   6A 01            PUSH 1
   ; 0045FA3C   57               PUSH EDI
   ; 0045FA3D   FF52 4C          CALL DWORD PTR DS:[EDX+4C]
   ; 0045FA40   68 18036000      PUSH haloce.00600318                     ; ASCII "ui\multiplayer_game_text"
   ; 0045FA45   BF 72747375      MOV EDI,75737472
   ; 0045FA4A   8BF0             MOV ESI,EAX
   ; 0045FA4C   E8 4F2FFEFF      CALL haloce.004429A0
   ; 0045FA51   83C4 0C          ADD ESP,0C
   ; 0045FA54   83F8 FF          CMP EAX,-1
   ; 0045FA57   74 0E            JE SHORT haloce.0045FA67
   ; 0045FA59   BA 5C000000      MOV EDX,5C
   ; 0045FA5E   8BC8             MOV ECX,EAX
   ; 0045FA60   E8 2BB90F00      CALL haloce.0055B390
   ; 0045FA65   EB 05            JMP SHORT haloce.0045FA6C
   ; 0045FA67   B8 14036000      MOV EAX,haloce.00600314
   ; 0045FA6C   8B9424 A8000000  MOV EDX,DWORD PTR SS:[ESP+A8]
   ; 0045FA73   56               PUSH ESI
   ; 0045FA74   50               PUSH EAX
   ; 0045FA75   53               PUSH EBX
   ; 0045FA76   E8 65B90F00      CALL haloce.0055B3E0
   ; 0045FA7B   6A 00            PUSH 0
   ; 0045FA7D   BE 11000000      MOV ESI,11
   ; 0045FA82   83CF FF          OR EDI,FFFFFFFF
   ; 0045FA85   E8 E6F10000      CALL haloce.0046EC70
   ; 0045FA8A   83C4 10          ADD ESP,10
   ; 0045FA8D   E9 11030000      JMP haloce.0045FDA3
   ; 0045FA92   8B35 C0558100    MOV ESI,DWORD PTR DS:[8155C0]
   ; 0045FA98   8BD7             MOV EDX,EDI
   ; 0045FA9A   E8 21410700      CALL haloce.004D3BC0
   ; 0045FA9F   85C0             TEST EAX,EAX
   ; 0045FAA1   0F84 F7020000    JE haloce.0045FD9E
   ; 0045FAA7   A1 44CD6800      MOV EAX,DWORD PTR DS:[68CD44]
   ; 0045FAAC   6A 01            PUSH 1
   ; 0045FAAE   57               PUSH EDI
   ; 0045FAAF   FF50 4C          CALL DWORD PTR DS:[EAX+4C]
   ; 0045FAB2   68 18036000      PUSH haloce.00600318                     ; ASCII "ui\multiplayer_game_text"
   ; 0045FAB7   BF 72747375      MOV EDI,75737472
   ; 0045FABC   8BF0             MOV ESI,EAX
   ; 0045FABE   E8 DD2EFEFF      CALL haloce.004429A0
   ; 0045FAC3   83C4 0C          ADD ESP,0C
   ; 0045FAC6   83F8 FF          CMP EAX,-1
   ; 0045FAC9   74 0E            JE SHORT haloce.0045FAD9
   ; 0045FACB   BA 5D000000      MOV EDX,5D
   ; 0045FAD0   8BC8             MOV ECX,EAX
   ; 0045FAD2   E8 B9B80F00      CALL haloce.0055B390
   ; 0045FAD7   EB 05            JMP SHORT haloce.0045FADE
   ; 0045FAD9   B8 14036000      MOV EAX,haloce.00600314
   ; 0045FADE   8B9424 A8000000  MOV EDX,DWORD PTR SS:[ESP+A8]
   ; 0045FAE5   56               PUSH ESI
   ; 0045FAE6   50               PUSH EAX
   ; 0045FAE7   53               PUSH EBX
   ; 0045FAE8   E8 F3B80F00      CALL haloce.0055B3E0
   ; 0045FAED   6A 00            PUSH 0
   ; 0045FAEF   BE 12000000      MOV ESI,12
   ; 0045FAF4   83CF FF          OR EDI,FFFFFFFF
   ; 0045FAF7   E8 74F10000      CALL haloce.0046EC70
   ; 0045FAFC   83C4 10          ADD ESP,10
   ; 0045FAFF   E9 9F020000      JMP haloce.0045FDA3
   ; 0045FB04   8B35 C0558100    MOV ESI,DWORD PTR DS:[8155C0]
   ; 0045FB0A   8BD5             MOV EDX,EBP
   ; 0045FB0C   E8 AF400700      CALL haloce.004D3BC0
   ; 0045FB11   8BD7             MOV EDX,EDI
   ; 0045FB13   8BE8             MOV EBP,EAX
   ; 0045FB15   E8 A6400700      CALL haloce.004D3BC0
   ; 0045FB1A   85C0             TEST EAX,EAX
   ; 0045FB1C   0F84 7C020000    JE haloce.0045FD9E
   ; 0045FB22   85ED             TEST EBP,EBP
   ; 0045FB24   0F84 74020000    JE haloce.0045FD9E
   ; 0045FB2A   8B0D 44CD6800    MOV ECX,DWORD PTR DS:[68CD44]
   ; 0045FB30   6A 01            PUSH 1
   ; 0045FB32   57               PUSH EDI
   ; 0045FB33   FF51 4C          CALL DWORD PTR DS:[ECX+4C]
   ; 0045FB36   68 18036000      PUSH haloce.00600318                     ; ASCII "ui\multiplayer_game_text"
   ; 0045FB3B   BF 72747375      MOV EDI,75737472
   ; 0045FB40   8BF0             MOV ESI,EAX
   ; 0045FB42   E8 592EFEFF      CALL haloce.004429A0
   ; 0045FB47   83C4 0C          ADD ESP,0C
   ; 0045FB4A   83F8 FF          CMP EAX,-1
   ; 0045FB4D   74 0E            JE SHORT haloce.0045FB5D
   ; 0045FB4F   BA 5E000000      MOV EDX,5E
   ; 0045FB54   8BC8             MOV ECX,EAX
   ; 0045FB56   E8 35B80F00      CALL haloce.0055B390
   ; 0045FB5B   EB 05            JMP SHORT haloce.0045FB62
   ; 0045FB5D   B8 14036000      MOV EAX,haloce.00600314
   ; 0045FB62   8B9424 A8000000  MOV EDX,DWORD PTR SS:[ESP+A8]
   ; 0045FB69   56               PUSH ESI
   ; 0045FB6A   83C5 04          ADD EBP,4
   ; 0045FB6D   55               PUSH EBP
   ; 0045FB6E   50               PUSH EAX
   ; 0045FB6F   53               PUSH EBX
   ; 0045FB70   E8 6BB80F00      CALL haloce.0055B3E0
   ; 0045FB75   83C4 10          ADD ESP,10
   ; 0045FB78   E9 26020000      JMP haloce.0045FDA3
   ; 0045FB7D   68 18036000      PUSH haloce.00600318                     ; ASCII "ui\multiplayer_game_text"
   ; 0045FB82   BF 72747375      MOV EDI,75737472
   ; 0045FB87   E8 142EFEFF      CALL haloce.004429A0
   ; 0045FB8C   83C4 04          ADD ESP,4
   ; 0045FB8F   83F8 FF          CMP EAX,-1
   ; 0045FB92   0F84 F4010000    JE haloce.0045FD8C
   ; 0045FB98   BA 5F000000      MOV EDX,5F
   ; 0045FB9D   8BC8             MOV ECX,EAX
   ; 0045FB9F   E8 ECB70F00      CALL haloce.0055B390
   ; 0045FBA4   56               PUSH ESI
   ; 0045FBA5   50               PUSH EAX
   ; 0045FBA6   53               PUSH EBX
   ; 0045FBA7   E8 77D21600      CALL haloce.005CCE23
   ; 0045FBAC   83C4 0C          ADD ESP,0C
   ; 0045FBAF   E9 EF010000      JMP haloce.0045FDA3
   ; 0045FBB4   68 18036000      PUSH haloce.00600318                     ; ASCII "ui\multiplayer_game_text"
   ; 0045FBB9   BF 72747375      MOV EDI,75737472
   ; 0045FBBE   E8 DD2DFEFF      CALL haloce.004429A0
   ; 0045FBC3   83C4 04          ADD ESP,4
   ; 0045FBC6   83F8 FF          CMP EAX,-1
   ; 0045FBC9   0F84 BD010000    JE haloce.0045FD8C
   ; 0045FBCF   BA 60000000      MOV EDX,60
   ; 0045FBD4   8BC8             MOV ECX,EAX
   ; 0045FBD6   E8 B5B70F00      CALL haloce.0055B390
   ; 0045FBDB   56               PUSH ESI
   ; 0045FBDC   50               PUSH EAX
   ; 0045FBDD   53               PUSH EBX
   ; 0045FBDE   E8 40D21600      CALL haloce.005CCE23
   ; 0045FBE3   83C4 0C          ADD ESP,0C
   ; 0045FBE6   E9 B8010000      JMP haloce.0045FDA3
   ; 0045FBEB   68 18036000      PUSH haloce.00600318                     ; ASCII "ui\multiplayer_game_text"
   ; 0045FBF0   BF 72747375      MOV EDI,75737472
   ; 0045FBF5   E8 A62DFEFF      CALL haloce.004429A0
   ; 0045FBFA   83C4 04          ADD ESP,4
   ; 0045FBFD   83F8 FF          CMP EAX,-1
   ; 0045FC00   74 1E            JE SHORT haloce.0045FC20
   ; 0045FC02   BA 61000000      MOV EDX,61
   ; 0045FC07   8BC8             MOV ECX,EAX
   ; 0045FC09   E8 82B70F00      CALL haloce.0055B390
   ; 0045FC0E   55               PUSH EBP
   ; 0045FC0F   50               PUSH EAX
   ; 0045FC10   53               PUSH EBX
   ; 0045FC11   8BD6             MOV EDX,ESI
   ; 0045FC13   E8 C8B70F00      CALL haloce.0055B3E0
   ; 0045FC18   83C4 0C          ADD ESP,0C
   ; 0045FC1B   E9 83010000      JMP haloce.0045FDA3
   ; 0045FC20   B8 14036000      MOV EAX,haloce.00600314
   ; 0045FC25   55               PUSH EBP
   ; 0045FC26   50               PUSH EAX
   ; 0045FC27   53               PUSH EBX
   ; 0045FC28   8BD6             MOV EDX,ESI
   ; 0045FC2A   E8 B1B70F00      CALL haloce.0055B3E0
   ; 0045FC2F   83C4 0C          ADD ESP,0C
   ; 0045FC32   E9 6C010000      JMP haloce.0045FDA3
   ; 0045FC37   68 18036000      PUSH haloce.00600318                     ; ASCII "ui\multiplayer_game_text"
   ; 0045FC3C   BF 72747375      MOV EDI,75737472
   ; 0045FC41   E8 5A2DFEFF      CALL haloce.004429A0
   ; 0045FC46   83C4 04          ADD ESP,4
   ; 0045FC49   83F8 FF          CMP EAX,-1
   ; 0045FC4C   0F84 3A010000    JE haloce.0045FD8C
   ; 0045FC52   BA 62000000      MOV EDX,62
   ; 0045FC57   8BC8             MOV ECX,EAX
   ; 0045FC59   E8 32B70F00      CALL haloce.0055B390
   ; 0045FC5E   56               PUSH ESI
   ; 0045FC5F   50               PUSH EAX
   ; 0045FC60   53               PUSH EBX
   ; 0045FC61   E8 BDD11600      CALL haloce.005CCE23
   ; 0045FC66   83C4 0C          ADD ESP,0C
   ; 0045FC69   E9 35010000      JMP haloce.0045FDA3
   ; 0045FC6E   68 18036000      PUSH haloce.00600318                     ; ASCII "ui\multiplayer_game_text"
   ; 0045FC73   BF 72747375      MOV EDI,75737472
   ; 0045FC78   E8 232DFEFF      CALL haloce.004429A0
   ; 0045FC7D   83C4 04          ADD ESP,4
   ; 0045FC80   83F8 FF          CMP EAX,-1
   ; 0045FC83   0F84 03010000    JE haloce.0045FD8C
   ; 0045FC89   BA 63000000      MOV EDX,63
   ; 0045FC8E   8BC8             MOV ECX,EAX
   ; 0045FC90   E8 FBB60F00      CALL haloce.0055B390
   ; 0045FC95   56               PUSH ESI
   ; 0045FC96   50               PUSH EAX
   ; 0045FC97   53               PUSH EBX
   ; 0045FC98   E8 86D11600      CALL haloce.005CCE23
   ; 0045FC9D   83C4 0C          ADD ESP,0C
   ; 0045FCA0   E9 FE000000      JMP haloce.0045FDA3
   ; 0045FCA5   8D5424 10        LEA EDX,DWORD PTR SS:[ESP+10]
   ; 0045FCA9   52               PUSH EDX
   ; 0045FCAA   B8 0C000000      MOV EAX,0C
   ; 0045FCAF   E8 ACED0200      CALL haloce.0048EA60
   ; 0045FCB4   83C4 04          ADD ESP,4
   ; 0045FCB7   84C0             TEST AL,AL
   ; 0045FCB9   74 4D            JE SHORT haloce.0045FD08
   ; 0045FCBB   8D4C24 1C        LEA ECX,DWORD PTR SS:[ESP+1C]
   ; 0045FCBF   8D4424 10        LEA EAX,DWORD PTR SS:[ESP+10]
   ; 0045FCC3   E8 98F70200      CALL haloce.0048F460
   ; 0045FCC8   68 18036000      PUSH haloce.00600318                     ; ASCII "ui\multiplayer_game_text"
   ; 0045FCCD   BF 72747375      MOV EDI,75737472
   ; 0045FCD2   E8 C92CFEFF      CALL haloce.004429A0
   ; 0045FCD7   83C4 04          ADD ESP,4
   ; 0045FCDA   83F8 FF          CMP EAX,-1
   ; 0045FCDD   74 0E            JE SHORT haloce.0045FCED
   ; 0045FCDF   BA 64000000      MOV EDX,64
   ; 0045FCE4   8BC8             MOV ECX,EAX
   ; 0045FCE6   E8 A5B60F00      CALL haloce.0055B390
   ; 0045FCEB   EB 05            JMP SHORT haloce.0045FCF2
   ; 0045FCED   B8 14036000      MOV EAX,haloce.00600314
   ; 0045FCF2   8D4C24 1C        LEA ECX,DWORD PTR SS:[ESP+1C]
   ; 0045FCF6   51               PUSH ECX
   ; 0045FCF7   50               PUSH EAX
   ; 0045FCF8   53               PUSH EBX
   ; 0045FCF9   8BD6             MOV EDX,ESI
   ; 0045FCFB   E8 E0B60F00      CALL haloce.0055B3E0
   ; 0045FD00   83C4 0C          ADD ESP,0C
   ; 0045FD03   E9 9B000000      JMP haloce.0045FDA3
   ; 0045FD08   66:C703 0000     MOV WORD PTR DS:[EBX],0
   ; 0045FD0D   E9 91000000      JMP haloce.0045FDA3
   ; 0045FD12   68 18036000      PUSH haloce.00600318                     ; ASCII "ui\multiplayer_game_text"
   ; 0045FD17   BF 72747375      MOV EDI,75737472
   ; 0045FD1C   E8 7F2CFEFF      CALL haloce.004429A0
   ; 0045FD21   83C4 04          ADD ESP,4
   ; 0045FD24   83F8 FF          CMP EAX,-1
   ; 0045FD27   74 10            JE SHORT haloce.0045FD39
   ; 0045FD29   BA BD000000      MOV EDX,0BD
   ; 0045FD2E   8BC8             MOV ECX,EAX
   ; 0045FD30   E8 5BB60F00      CALL haloce.0055B390
   ; 0045FD35   8BF8             MOV EDI,EAX
   ; 0045FD37   EB 05            JMP SHORT haloce.0045FD3E
   ; 0045FD39   BF 14036000      MOV EDI,haloce.00600314
   ; 0045FD3E   53               PUSH EBX
   ; 0045FD3F   56               PUSH ESI
   ; 0045FD40   8BCD             MOV ECX,EBP
   ; 0045FD42   E8 09950000      CALL haloce.00469250
   ; 0045FD47   53               PUSH EBX
   ; 0045FD48   E8 4DB11600      CALL haloce.005CAE9A
   ; 0045FD4D   2BF0             SUB ESI,EAX
   ; 0045FD4F   56               PUSH ESI
   ; 0045FD50   57               PUSH EDI
   ; 0045FD51   53               PUSH EBX
   ; 0045FD52   E8 B6D11600      CALL haloce.005CCF0D
   ; 0045FD57   83C4 18          ADD ESP,18
   ; 0045FD5A   EB 47            JMP SHORT haloce.0045FDA3
   ; 0045FD5C   68 18036000      PUSH haloce.00600318                     ; ASCII "ui\multiplayer_game_text"
   ; 0045FD61   BF 72747375      MOV EDI,75737472
   ; 0045FD66   E8 352CFEFF      CALL haloce.004429A0
   ; 0045FD6B   83C4 04          ADD ESP,4
   ; 0045FD6E   83F8 FF          CMP EAX,-1
   ; 0045FD71   74 19            JE SHORT haloce.0045FD8C
   ; 0045FD73   BA B7000000      MOV EDX,0B7
   ; 0045FD78   8BC8             MOV ECX,EAX
   ; 0045FD7A   E8 11B60F00      CALL haloce.0055B390
   ; 0045FD7F   56               PUSH ESI
   ; 0045FD80   50               PUSH EAX
   ; 0045FD81   53               PUSH EBX
   ; 0045FD82   E8 9CD01600      CALL haloce.005CCE23
   ; 0045FD87   83C4 0C          ADD ESP,0C
   ; 0045FD8A   EB 17            JMP SHORT haloce.0045FDA3
   ; 0045FD8C   B8 14036000      MOV EAX,haloce.00600314
   ; 0045FD91   56               PUSH ESI
   ; 0045FD92   50               PUSH EAX
   ; 0045FD93   53               PUSH EBX
   ; 0045FD94   E8 8AD01600      CALL haloce.005CCE23
   ; 0045FD99   83C4 0C          ADD ESP,0C
   ; 0045FD9C   EB 05            JMP SHORT haloce.0045FDA3
   ; 0045FD9E   C64424 0F 00     MOV BYTE PTR SS:[ESP+F],0
   0045FDA3   8B9424 A8000000  MOV EDX,DWORD PTR SS:[ESP+A8];->EDX=00000400
   0045FDAA   8A4424 0F        MOV AL,BYTE PTR SS:[ESP+F];->AL=01
   0045FDAE   5F               POP EDI
   0045FDAF   5E               POP ESI
   0045FDB0   66:C74453 FE 0000 MOV WORD PTR DS:[EBX+EDX*2-2],0;adds null terminator
   0045FDB7   5D               POP EBP
   0045FDB8   81C4 90000000    ADD ESP,90
   0045FDBE   C3               RETN
  <-
  00461859   83C4 0C              ADD ESP,0C
  0046185C   84C0                 TEST AL,AL
  0046185E   74 44                JE SHORT haloce.004618A4
  00461860   83FD 1C              CMP EBP,1C;3
  00461863   77 12                JA SHORT haloce.00461877
  00461865   0FB685 E4184600      MOVZX EAX,BYTE PTR SS:[EBP+4618E4];->EAX=00000000
  0046186C   FF2485 DC184600    JMP DWORD PTR DS:[EAX*4+4618DC] ; haloce.00461873  switch
  00461873   B0 01                MOV AL,1
  00461875   EB 02                JMP SHORT haloce.00461879
  ;00461877   32C0                 XOR AL,AL
  00461879   84C0                 TEST AL,AL
  0046187B   66:C78424 0A080000 0000   MOV WORD PTR SS:[ESP+80A],0;Stack SS:[0017D11E]
  00461885   74 0C                JE SHORT haloce.00461893
  00461887   8D4C24 0C            LEA ECX,DWORD PTR SS:[ESP+C];->ECX=0017C920 L"Krwlng was killed by a vehicle"
  0046188B   51                   PUSH ECX
  0046188C   E8 3FD20400          CALL haloce.004AEAD0
  -> 
   004AEAD0   A1 D4446B00       MOV EAX,DWORD PTR DS:[6B44D4]
   004AEAD5   83EC 08           SUB ESP,8
   004AEAD8   83F8 08           CMP EAX,8
   004AEADB   7C 05             JL SHORT haloce.004AEAE2
   004AEADD   E8 7EFDFFFF       CALL haloce.004AE860
   004AEAE2   A1 A8D16B00       MOV EAX,DWORD PTR DS:[6BD1A8]
   004AEAE7   85C0              TEST EAX,EAX
   004AEAE9   74 69             JE SHORT haloce.004AEB54
   004AEAEB   8B0D 647D6300     MOV ECX,DWORD PTR DS:[637D64]         ; haloce.0060E750
   004AEAF1   8B15 94D16B00     MOV EDX,DWORD PTR DS:[6BD194]
   004AEAF7   57                PUSH EDI
   004AEAF8   51                PUSH ECX
   004AEAF9   52                PUSH EDX
   004AEAFA   FFD0              CALL EAX
   004AEAFC   8BF8              MOV EDI,EAX
   004AEAFE   83C4 08           ADD ESP,8
   004AEB01   85FF              TEST EDI,EDI
   004AEB03   74 4E             JE SHORT haloce.004AEB53
   004AEB05   56                PUSH ESI
   004AEB06   68 4CA46000       PUSH haloce.0060A44C   ; UNICODE "oListbox"
   004AEB0B   57                PUSH EDI
   004AEB0C   FF15 BCD16B00     CALL DWORD PTR DS:[6BD1BC]  ; keystone.Call_KW_GetControlByID
   004AEB12   8BF0              MOV ESI,EAX
   004AEB14   83C4 08           ADD ESP,8
   004AEB17   85F6              TEST ESI,ESI
   004AEB19   74 2D             JE SHORT haloce.004AEB48
   004AEB1B   8B4424 14         MOV EAX,DWORD PTR SS:[ESP+14]
   004AEB1F   50                PUSH EAX
   004AEB20   6A 00             PUSH 0
   004AEB22   68 80010000       PUSH 180
   004AEB27   56                PUSH ESI
   004AEB28   FF15 D8D16B00     CALL DWORD PTR DS:[6BD1D8] ; keystone.Call_KC_SendMessage
   004AEB2E   6A 00             PUSH 0
   004AEB30   6A 02             PUSH 2
   004AEB32   68 15010000       PUSH 115
   004AEB37   56                PUSH ESI;send to clients?
   004AEB38   FF15 D8D16B00     CALL DWORD PTR DS:[6BD1D8] ; keystone.Call_KC_SendMessage
   004AEB3E   57                PUSH EDI
   004AEB3F   FF15 C0D16B00     CALL DWORD PTR DS:[6BD1C0] ; keystone.Call_KW_ReLayout
   004AEB45   83C4 24           ADD ESP,24
   004AEB48   57                PUSH EDI
   004AEB49   FF15 B8D16B00     CALL DWORD PTR DS:[6BD1B8] ; keystone.Call_KW_Release
   004AEB4F   83C4 04           ADD ESP,4
   004AEB52   5E                POP ESI
   004AEB53   5F                POP EDI
   004AEB54   8D0C24            LEA ECX,DWORD PTR SS:[ESP]
   004AEB57   51                PUSH ECX
   004AEB58   FF15 B0F05D00     CALL DWORD PTR DS:[<&KERNEL32.QueryPe>; kernel32.QueryPerformanceCounter
   004AEB5E   8B5424 04         MOV EDX,DWORD PTR SS:[ESP+4]
   004AEB62   8B0424            MOV EAX,DWORD PTR SS:[ESP]
   004AEB65   6A 00             PUSH 0
   004AEB67   68 E8030000       PUSH 3E8
   004AEB6C   52                PUSH EDX
   004AEB6D   50                PUSH EAX
   004AEB6E   E8 1D461200       CALL haloce.005D3190
   004AEB73   8B0D 4C786400     MOV ECX,DWORD PTR DS:[64784C]
   004AEB79   51                PUSH ECX
   004AEB7A   8B0D 48786400     MOV ECX,DWORD PTR DS:[647848]
   004AEB80   51                PUSH ECX
   004AEB81   52                PUSH EDX
   004AEB82   50                PUSH EAX
   004AEB83   E8 B8F91200       CALL haloce.005DE540
   004AEB88   8BC8              MOV ECX,EAX
   004AEB8A   A1 D4446B00       MOV EAX,DWORD PTR DS:[6B44D4]
   004AEB8F   81C1 401F0000     ADD ECX,1F40
   004AEB95   890C85 70E96400   MOV DWORD PTR DS:[EAX*4+64E970],ECX
   004AEB9C   40                INC EAX
   004AEB9D   A3 D4446B00       MOV DWORD PTR DS:[6B44D4],EAX
   004AEBA2   83C4 08           ADD ESP,8
   004AEBA5   C3                RETN
  <-
  00461891   EB 0E                JMP SHORT haloce.004618A1
  ;00461893   66:8B46 02           MOV AX,WORD PTR DS:[ESI+2]
  ;00461897   8D5424 0C            LEA EDX,DWORD PTR SS:[ESP+C]
  ;0046189B   52                   PUSH EDX
  ;0046189C   E8 EFFE0400          CALL haloce.004B1790
  004618A1   83C4 04              ADD ESP,4
  004618A4   66:833D D0476B00 02  CMP WORD PTR DS:[6B47D0],2;2==2?
  004618AC   75 24                JNZ SHORT haloce.004618D2
  004618AE   80BC24 1C080000 01   CMP BYTE PTR SS:[ESP+81C],1;1==1?
  004618B6   75 1A                JNZ SHORT haloce.004618D2
  004618B8   8B8424 18080000      MOV EAX,DWORD PTR SS:[ESP+818];->EAX=FFFFFFFF
  004618BF   8B8C24 10080000      MOV ECX,DWORD PTR SS:[ESP+810];->ECX=EC700000
  004618C6   50                   PUSH EAX
  004618C7   55                   PUSH EBP
  004618C8   8BC7                 MOV EAX,EDI ;->EAX=EC700000
  004618CA   E8 71FDFFFF          CALL haloce.00461640
  ->
   00461640   83EC 0C          SUB ESP,0C
   00461643   55               PUSH EBP
   00461644   56               PUSH ESI
   00461645   57               PUSH EDI
   00461646   8BF8             MOV EDI,EAX;->EDI=EC700000
   00461648   33C0             XOR EAX,EAX
   0046164A   83F9 FF          CMP ECX,-1
   0046164D   74 15            JE SHORT haloce.00461664
   0046164F   8B35 182B6200    MOV ESI,DWORD PTR DS:[622B18] ; haloce.00622A90
   00461655   83C6 0C          ADD ESI,0C ;->ESI=00622A9C
   00461658   E8 132C0900      CALL haloce.004F4270;validate static player tag
   0046165D   83F8 FF          CMP EAX,-1;EAX=00000001
   00461660   75 02            JNZ SHORT haloce.00461664
   ;00461662   33C0             XOR EAX,EAX
   00461664   8B4C24 20        MOV ECX,DWORD PTR SS:[ESP+20];->ECX=FFFFFFFF
   00461668   6A 00            PUSH 0
   0046166A   894424 10        MOV DWORD PTR SS:[ESP+10],EAX ;Stack SS:[0017C8FC]
   0046166E   8B4424 20        MOV EAX,DWORD PTR SS:[ESP+20] ;->EAX=00000003
   00461672   6A 01            PUSH 1
   00461674   894424 18        MOV DWORD PTR SS:[ESP+18],EAX;Stack SS:[0017C900]
   00461678   6A 00            PUSH 0
   0046167A   8D4424 28        LEA EAX,DWORD PTR SS:[ESP+28];->EAX=0017C90C
   0046167E   50               PUSH EAX
   0046167F   6A 00            PUSH 0
   00461681   8D5424 20        LEA EDX,DWORD PTR SS:[ESP+20];->EDX=0017C8FC
   00461685   895424 30        MOV DWORD PTR SS:[ESP+30],EDX;Stack SS:[0017C90C]
   00461689   6A 18            PUSH 18
   0046168B   6A 00            PUSH 0
   0046168D   BA F87F0000      MOV EDX,7FF8
   00461692   B8 20CE8000      MOV EAX,haloce.0080CE20
   00461697   894C24 30        MOV DWORD PTR SS:[ESP+30],ECX;Stack SS:[0017C904]
   0046169B   C74424 3C 00000000   MOV DWORD PTR SS:[ESP+3C],0;Stack SS:[0017C910]
   004616A3   E8 28EF0800      CALL haloce.004F05D0;build network packet
   004616A8   8BE8             MOV EBP,EAX;->EBP=0000004C
   004616AA   83C4 1C          ADD ESP,1C
   004616AD   85ED             TEST EBP,EBP
   004616AF   7E 7A            JLE SHORT haloce.0046172B
   004616B1   8B0D C0558100    MOV ECX,DWORD PTR DS:[8155C0];"players"
   004616B7   8B51 34          MOV EDX,DWORD PTR DS:[ECX+34]
   004616BA   8B35 84736B00    MOV ESI,DWORD PTR DS:[6B7384];->ESI=007FC340
   004616C0   81E7 FFFF0000    AND EDI,0FFFF
   004616C6   C1E7 09          SHL EDI,9
   004616C9   0FBE4417 64      MOVSX EAX,BYTE PTR DS:[EDI+EDX+64];static player.PlayerRespIndex->EAX=00000000
   004616CE   33C9             XOR ECX,ECX
   004616D0   8D96 04040000    LEA EDX,DWORD PTR DS:[ESI+404];->EDX=007FC744
   004616D6   0FBF3A           MOVSX EDI,WORD PTR DS:[EDX];->EDI=00000000
   004616D9   3BF8             CMP EDI,EAX
   004616DB   74 10            JE SHORT haloce.004616ED
   ;004616DD   41               INC ECX
   ;004616DE   83C2 60          ADD EDX,60
   ;004616E1   83F9 10          CMP ECX,10
   ;004616E4  ^7C F0            JL SHORT haloce.004616D6
   ;004616E6   5F               POP EDI
   ;004616E7   5E               POP ESI
   ;004616E8   5D               POP EBP
   ;004616E9   83C4 0C          ADD ESP,0C
   ;004616EC   C3               RETN
   004616ED   8D0C49           LEA ECX,DWORD PTR DS:[ECX+ECX*2];->ECX=00000000
   004616F0   C1E1 05          SHL ECX,5;->ECX=00000000
   004616F3   8D8C31 F8030000  LEA ECX,DWORD PTR DS:[ECX+ESI+3F8];->ECX=007FC738
   004616FA   85C9             TEST ECX,ECX
   004616FC   74 2D            JE SHORT haloce.0046172B
   004616FE   66:8B49 0E       MOV CX,WORD PTR DS:[ECX+E];->CX=0007
   00461702   8AD1             MOV DL,CL;->DL=07
   00461704   D0EA             SHR DL,1;->DL=03
   00461706   F6C2 01          TEST DL,1
   00461709   74 20            JE SHORT haloce.0046172B
   0046170B   C0E9 02          SHR CL,2;->CL=01
   0046170E   F6C1 01          TEST CL,1
   00461711   74 18            JE SHORT haloce.0046172B
   00461713   6A 03            PUSH 3
   00461715   6A 00            PUSH 0
   00461717   6A 00            PUSH 0
   00461719   6A 01            PUSH 1
   0046171B   55               PUSH EBP;0000004C
   0046171C   68 20CE8000      PUSH haloce.0080CE20
   00461721   6A 01            PUSH 1
   00461723   E8 B8390800      CALL haloce.004E50E0;send message to specific player
   00461728   83C4 1C          ADD ESP,1C;EAX=00000000
   0046172B   5F               POP EDI
   0046172C   5E               POP ESI
   0046172D   5D               POP EBP
   0046172E   83C4 0C          ADD ESP,0C
   00461731   C3               RETN
  <-
  004618CF   83C4 08              ADD ESP,8
  004618D2   5E                   POP ESI
  004618D3   5B                   POP EBX
  004618D4   5D                   POP EBP
  004618D5   81C4 00080000        ADD ESP,800
  004618DB   C3                   RETN
 <-
 00461B8B   83C4 10          ADD ESP,10
 00461B8E   8D7C24 08        LEA EDI,DWORD PTR SS:[ESP+8];->EDI=0017D13C
 00461B92   E8 791F0700      CALL haloce.004D3B10;get valid static player
 00461B97   85C0             TEST EAX,EAX;EAX=00000000
 00461B99  ^75 C5            JNZ SHORT haloce.00461B60
 00461B9B   5F               POP EDI
 00461B9C   5D               POP EBP
 00461B9D   83C4 10          ADD ESP,10
 00461BA0   C3               RETN
<-
00461187   83C4 0C          ADD ESP,0C
0046118A   83FE 05          CMP ESI,5;ESI=00000003
0046118D   0F85 F8010000    JNZ haloce.0046138B
;00461193   83CE FF          OR ESI,FFFFFFFF
;00461196   3BFE             CMP EDI,ESI
;00461198   0F84 CB000000    JE haloce.00461269
;0046119E   8BD7             MOV EDX,EDI
;004611A0   C1FA 10          SAR EDX,10
;004611A3   66:85FF          TEST DI,DI
;004611A6   0F8C 44040000    JL haloce.004615F0
;004611AC   8B0D C0558100    MOV ECX,DWORD PTR DS:[8155C0]
;004611B2   66:3B79 20       CMP DI,WORD PTR DS:[ECX+20]
;004611B6   0F8D 34040000    JGE haloce.004615F0
;004611BC   0FBF41 22        MOVSX EAX,WORD PTR DS:[ECX+22]
;004611C0   0FBFDF           MOVSX EBX,DI
;004611C3   0FAFC3           IMUL EAX,EBX
;004611C6   8B59 34          MOV EBX,DWORD PTR DS:[ECX+34]
; 004611C9   66:8B0C18        MOV CX,WORD PTR DS:[EAX+EBX]
; 004611CD   03C3             ADD EAX,EBX
; 004611CF   66:85C9          TEST CX,CX
; 004611D2   0F84 18040000    JE haloce.004615F0
; 004611D8   66:85D2          TEST DX,DX
; 004611DB   74 09            JE SHORT haloce.004611E6
; 004611DD   66:3BCA          CMP CX,DX
; 004611E0   0F85 0A040000    JNZ haloce.004615F0
; 004611E6   66:3970 02       CMP WORD PTR DS:[EAX+2],SI
; 004611EA   74 55            JE SHORT haloce.00461241
; 004611EC   8B0D 44CD6800    MOV ECX,DWORD PTR DS:[68CD44]            ; haloce.006236B8
; 004611F2   8B41 6C          MOV EAX,DWORD PTR DS:[ECX+6C]
; 004611F5   85C0             TEST EAX,EAX
; 004611F7   74 17            JE SHORT haloce.00461210
; 004611F9   68 00040000      PUSH 400
; 004611FE   8D5424 24        LEA EDX,DWORD PTR SS:[ESP+24]
; 00461202   52               PUSH EDX
; 00461203   55               PUSH EBP
; 00461204   6A 0D            PUSH 0D
; 00461206   57               PUSH EDI
; 00461207   FFD0             CALL EAX
; 00461209   83C4 14          ADD ESP,14
; 0046120C   84C0             TEST AL,AL
; 0046120E   75 1A            JNZ SHORT haloce.0046122A
; 00461210   68 00040000      PUSH 400
; 00461215   55               PUSH EBP
; 00461216   6A 0D            PUSH 0D
; 00461218   8D5C24 2C        LEA EBX,DWORD PTR SS:[ESP+2C]
; 0046121C   8BC7             MOV EAX,EDI
; 0046121E   E8 9DE0FFFF      CALL haloce.0045F2C0

; 00461223   83C4 0C          ADD ESP,0C
; 00461226   84C0             TEST AL,AL
; 00461228   74 17            JE SHORT haloce.00461241
; 0046122A   8D4424 20        LEA EAX,DWORD PTR SS:[ESP+20]
; 0046122E   50               PUSH EAX
; 0046122F   66:C78424 220800>MOV WORD PTR SS:[ESP+822],0
; 00461239   E8 92D80400      CALL haloce.004AEAD0
; ->
 ; 004AEAD0   A1 D4446B00      MOV EAX,DWORD PTR DS:[6B44D4]
 ; 004AEAD5   83EC 08          SUB ESP,8
 ; 004AEAD8   83F8 08          CMP EAX,8
 ; 004AEADB   7C 05            JL SHORT haloce.004AEAE2
 ; 004AEADD   E8 7EFDFFFF      CALL haloce.004AE860
 ; 004AEAE2   A1 A8D16B00      MOV EAX,DWORD PTR DS:[6BD1A8]
 ; 004AEAE7   85C0             TEST EAX,EAX
 ; 004AEAE9   74 69            JE SHORT haloce.004AEB54
 ; 004AEAEB   8B0D 647D6300    MOV ECX,DWORD PTR DS:[637D64]            ; haloce.0060E750
 ; 004AEAF1   8B15 94D16B00    MOV EDX,DWORD PTR DS:[6BD194]
 ; 004AEAF7   57               PUSH EDI
 ; 004AEAF8   51               PUSH ECX
 ; 004AEAF9   52               PUSH EDX
 ; 004AEAFA   FFD0             CALL EAX
 ; 004AEAFC   8BF8             MOV EDI,EAX
 ; 004AEAFE   83C4 08          ADD ESP,8
 ; 004AEB01   85FF             TEST EDI,EDI
 ; 004AEB03   74 4E            JE SHORT haloce.004AEB53
 ; 004AEB05   56               PUSH ESI
 ; 004AEB06   68 4CA46000      PUSH haloce.0060A44C                     ; UNICODE "oListbox"
 ; 004AEB0B   57               PUSH EDI
 ; 004AEB0C   FF15 BCD16B00    CALL DWORD PTR DS:[6BD1BC]
 ; 004AEB12   8BF0             MOV ESI,EAX
 ; 004AEB14   83C4 08          ADD ESP,8
 ; 004AEB17   85F6             TEST ESI,ESI
 ; 004AEB19   74 2D            JE SHORT haloce.004AEB48
 ; 004AEB1B   8B4424 14        MOV EAX,DWORD PTR SS:[ESP+14]
 ; 004AEB1F   50               PUSH EAX
 ; 004AEB20   6A 00            PUSH 0
 ; 004AEB22   68 80010000      PUSH 180
 ; 004AEB27   56               PUSH ESI
 ; 004AEB28   FF15 D8D16B00    CALL DWORD PTR DS:[6BD1D8]
 ; 004AEB2E   6A 00            PUSH 0
 ; 004AEB30   6A 02            PUSH 2
 ; 004AEB32   68 15010000      PUSH 115
 ; 004AEB37   56               PUSH ESI
 ; 004AEB38   FF15 D8D16B00    CALL DWORD PTR DS:[6BD1D8]
 ; 004AEB3E   57               PUSH EDI
 ; 004AEB3F   FF15 C0D16B00    CALL DWORD PTR DS:[6BD1C0]
 ; 004AEB45   83C4 24          ADD ESP,24
 ; 004AEB48   57               PUSH EDI
 ; 004AEB49   FF15 B8D16B00    CALL DWORD PTR DS:[6BD1B8]
 ; 004AEB4F   83C4 04          ADD ESP,4
 ; 004AEB52   5E               POP ESI
 ; 004AEB53   5F               POP EDI
 ; 004AEB54   8D0C24           LEA ECX,DWORD PTR SS:[ESP]
 ; 004AEB57   51               PUSH ECX
 ; 004AEB58   FF15 B0F05D00    CALL DWORD PTR DS:[<&KERNEL32.QueryPerfo>; kernel32.QueryPerformanceCounter
 ; 004AEB5E   8B5424 04        MOV EDX,DWORD PTR SS:[ESP+4]
 ; 004AEB62   8B0424           MOV EAX,DWORD PTR SS:[ESP]
 ; 004AEB65   6A 00            PUSH 0
 ; 004AEB67   68 E8030000      PUSH 3E8
 ; 004AEB6C   52               PUSH EDX
 ; 004AEB6D   50               PUSH EAX
 ; 004AEB6E   E8 1D461200      CALL haloce.005D3190
 ; 004AEB73   8B0D 4C786400    MOV ECX,DWORD PTR DS:[64784C]
 ; 004AEB79   51               PUSH ECX
 ; 004AEB7A   8B0D 48786400    MOV ECX,DWORD PTR DS:[647848]
 ; 004AEB80   51               PUSH ECX
 ; 004AEB81   52               PUSH EDX
 ; 004AEB82   50               PUSH EAX
 ; 004AEB83   E8 B8F91200      CALL haloce.005DE540
 ; 004AEB88   8BC8             MOV ECX,EAX
 ; 004AEB8A   A1 D4446B00      MOV EAX,DWORD PTR DS:[6B44D4]
 ; 004AEB8F   81C1 401F0000    ADD ECX,1F40
 ; 004AEB95   890C85 70E96400  MOV DWORD PTR DS:[EAX*4+64E970],ECX
 ; 004AEB9C   40               INC EAX
 ; 004AEB9D   A3 D4446B00      MOV DWORD PTR DS:[6B44D4],EAX
 ; 004AEBA2   83C4 08          ADD ESP,8
 ; 004AEBA5   C3               RETN
; <-
; 0046123E   83C4 04          ADD ESP,4
; 00461241   66:833D D0476B00>CMP WORD PTR DS:[6B47D0],2
; 00461249   0F85 A1030000    JNZ haloce.004615F0
; 0046124F   55               PUSH EBP
; 00461250   6A 0D            PUSH 0D
; 00461252   8BCF             MOV ECX,EDI
; 00461254   8BC7             MOV EAX,EDI
; 00461256   E8 E5030000      CALL haloce.00461640
; 0046125B   83C4 08          ADD ESP,8
; 0046125E   5B               POP EBX
; 0046125F   5F               POP EDI
; 00461260   5E               POP ESI
; 00461261   5D               POP EBP
; 00461262   81C4 10080000    ADD ESP,810
; 00461268   C3               RETN
; 00461269   8B1D C0558100    MOV EBX,DWORD PTR DS:[8155C0]
; 0046126F   8BCB             MOV ECX,EBX
; 00461271   81F1 72657469    XOR ECX,69746572
; 00461277   8D7C24 10        LEA EDI,DWORD PTR SS:[ESP+10]
; 0046127B   895C24 10        MOV DWORD PTR SS:[ESP+10],EBX
; 0046127F   66:C74424 14 000>MOV WORD PTR SS:[ESP+14],0
; 00461286   897424 18        MOV DWORD PTR SS:[ESP+18],ESI
; 0046128A   894C24 1C        MOV DWORD PTR SS:[ESP+1C],ECX
; 0046128E   E8 7D280700      CALL haloce.004D3B10
; 00461293   85C0             TEST EAX,EAX
; 00461295   0F84 55030000    JE haloce.004615F0
; 0046129B   EB 03            JMP SHORT haloce.004612A0
; 0046129D   8D49 00          LEA ECX,DWORD PTR DS:[ECX]
; 004612A0   8B7424 18        MOV ESI,DWORD PTR SS:[ESP+18]
; 004612A4   83FE FF          CMP ESI,-1
; 004612A7   0F84 C2000000    JE haloce.0046136F
; 004612AD   8BCE             MOV ECX,ESI
; 004612AF   66:8BD6          MOV DX,SI
; 004612B2   C1F9 10          SAR ECX,10
; 004612B5   66:85D2          TEST DX,DX
; 004612B8   0F8C B1000000    JL haloce.0046136F
; 004612BE   66:3B53 20       CMP DX,WORD PTR DS:[EBX+20]
; 004612C2   0F8D A7000000    JGE haloce.0046136F
; 004612C8   0FBF43 22        MOVSX EAX,WORD PTR DS:[EBX+22]
; 004612CC   0FBFD2           MOVSX EDX,DX
; 004612CF   0FAFC2           IMUL EAX,EDX
; 004612D2   0343 34          ADD EAX,DWORD PTR DS:[EBX+34]
; 004612D5   66:8B10          MOV DX,WORD PTR DS:[EAX]
; 004612D8   66:85D2          TEST DX,DX
; 004612DB   0F84 8E000000    JE haloce.0046136F
; 004612E1   66:85C9          TEST CX,CX
; 004612E4   74 09            JE SHORT haloce.004612EF
; 004612E6   66:3BD1          CMP DX,CX
; 004612E9   0F85 80000000    JNZ haloce.0046136F
; 004612EF   66:8378 02 FF    CMP WORD PTR DS:[EAX+2],0FFFF
; 004612F4   74 5A            JE SHORT haloce.00461350
; 004612F6   A1 44CD6800      MOV EAX,DWORD PTR DS:[68CD44]
; 004612FB   8B40 6C          MOV EAX,DWORD PTR DS:[EAX+6C]
; 004612FE   85C0             TEST EAX,EAX
; 00461300   74 17            JE SHORT haloce.00461319
; 00461302   68 00040000      PUSH 400
; 00461307   8D4C24 24        LEA ECX,DWORD PTR SS:[ESP+24]
; 0046130B   51               PUSH ECX
; 0046130C   55               PUSH EBP
; 0046130D   6A 0D            PUSH 0D
; 0046130F   56               PUSH ESI
; 00461310   FFD0             CALL EAX
; 00461312   83C4 14          ADD ESP,14
; 00461315   84C0             TEST AL,AL
; 00461317   75 1A            JNZ SHORT haloce.00461333
; 00461319   68 00040000      PUSH 400
; 0046131E   55               PUSH EBP
; 0046131F   6A 0D            PUSH 0D
; 00461321   8D5C24 2C        LEA EBX,DWORD PTR SS:[ESP+2C]
; 00461325   8BC6             MOV EAX,ESI
; 00461327   E8 94DFFFFF      CALL haloce.0045F2C0
; 0046132C   83C4 0C          ADD ESP,0C
; 0046132F   84C0             TEST AL,AL
; 00461331   74 17            JE SHORT haloce.0046134A
; 00461333   8D5424 20        LEA EDX,DWORD PTR SS:[ESP+20]
; 00461337   52               PUSH EDX
; 00461338   66:C78424 220800>MOV WORD PTR SS:[ESP+822],0
; 00461342   E8 89D70400      CALL haloce.004AEAD0
; 00461347   83C4 04          ADD ESP,4
; 0046134A   8B1D C0558100    MOV EBX,DWORD PTR DS:[8155C0]
; 00461350   66:833D D0476B00>CMP WORD PTR DS:[6B47D0],2
; 00461358   75 15            JNZ SHORT haloce.0046136F
; 0046135A   55               PUSH EBP
; 0046135B   6A 0D            PUSH 0D
; 0046135D   8BCE             MOV ECX,ESI
; 0046135F   8BC6             MOV EAX,ESI
; 00461361   E8 DA020000      CALL haloce.00461640
; 00461366   8B1D C0558100    MOV EBX,DWORD PTR DS:[8155C0]
; 0046136C   83C4 08          ADD ESP,8
; 0046136F   8D7C24 10        LEA EDI,DWORD PTR SS:[ESP+10]
; 00461373   E8 98270700      CALL haloce.004D3B10
; 00461378   85C0             TEST EAX,EAX
; 0046137A  ^0F85 20FFFFFF    JNZ haloce.004612A0
; 00461380   5B               POP EBX
;00461381   5F               POP EDI
;00461382   5E               POP ESI
;00461383   5D               POP EBP
;00461384   81C4 10080000    ADD ESP,810
;0046138A   C3               RETN
0046138B   83FE 04          CMP ESI,4
0046138E   0F85 5C020000    JNZ haloce.004615F0
;00461394   8B1D C0558100    MOV EBX,DWORD PTR DS:[8155C0]
;0046139A   8B73 34          MOV ESI,DWORD PTR DS:[EBX+34]
;0046139D   8BC7             MOV EAX,EDI
; 0046139F   25 FFFF0000      AND EAX,0FFFF
; 004613A4   C1E0 09          SHL EAX,9
; 004613A7   66:8B8C30 98000000   MOV CX,WORD PTR DS:[EAX+ESI+98]
; 004613AF   03C6             ADD EAX,ESI
; 004613B1   66:83F9 04       CMP CX,4
; 004613B5   7C 07            JL SHORT haloce.004613BE
; 004613B7   BE 0A000000      MOV ESI,0A
; 004613BC   EB 42            JMP SHORT haloce.00461400
; 004613BE   66:83F9 03       CMP CX,3
; 004613C2   75 07            JNZ SHORT haloce.004613CB
; 004613C4   BE 09000000      MOV ESI,9
; 004613C9   EB 35            JMP SHORT haloce.00461400
; 004613CB   66:83F9 02       CMP CX,2
; 004613CF   75 07            JNZ SHORT haloce.004613D8
; 004613D1   BE 07000000      MOV ESI,7
; 004613D6   EB 28            JMP SHORT haloce.00461400
; 004613D8   66:8B80 96000000 MOV AX,WORD PTR DS:[EAX+96]
; 004613DF   66:3D 0500       CMP AX,5
; 004613E3   75 07            JNZ SHORT haloce.004613EC
; 004613E5   BE 0B000000      MOV ESI,0B
; 004613EA   EB 14            JMP SHORT haloce.00461400
; 004613EC   0FBFC0           MOVSX EAX,AX
; 004613EF   99               CDQ
; 004613F0   B9 05000000      MOV ECX,5
; 004613F5   F7F9             IDIV ECX
; 004613F7   85D2             TEST EDX,EDX
; 004613F9   75 19            JNZ SHORT haloce.00461414
; 004613FB   BE 0C000000      MOV ESI,0C
; 00461400   55               PUSH EBP
; 00461401   57               PUSH EDI
; 00461402   B3 01            MOV BL,1
; 00461404   8BC7             MOV EAX,EDI
; 00461406   E8 75060000      CALL haloce.00461A80
; 0046140B   8B1D C0558100    MOV EBX,DWORD PTR DS:[8155C0]
; 00461411   83C4 08          ADD ESP,8
; 00461414   83FF FF          CMP EDI,-1
; 00461417   0F84 C3000000    JE haloce.004614E0
; 0046141D   8BD7             MOV EDX,EDI
; 0046141F   C1FA 10          SAR EDX,10
; 00461422   66:85FF          TEST DI,DI
; 00461425   0F8C C5010000    JL haloce.004615F0
; 0046142B   66:3B7B 20       CMP DI,WORD PTR DS:[EBX+20]
; 0046142F   0F8D BB010000    JGE haloce.004615F0
; 00461435   0FBF43 22        MOVSX EAX,WORD PTR DS:[EBX+22]
; 00461439   0FBFCF           MOVSX ECX,DI
; 0046143C   0FAFC1           IMUL EAX,ECX
; 0046143F   0343 34          ADD EAX,DWORD PTR DS:[EBX+34]
; 00461442   66:8B08          MOV CX,WORD PTR DS:[EAX]
; 00461445   66:85C9          TEST CX,CX
; 00461448   0F84 A2010000    JE haloce.004615F0
; 0046144E   66:85D2          TEST DX,DX
; 00461451   74 09            JE SHORT haloce.0046145C
; 00461453   66:3BCA          CMP CX,DX
; 00461456   0F85 94010000    JNZ haloce.004615F0
; 0046145C   66:8378 02 FF    CMP WORD PTR DS:[EAX+2],0FFFF
; 00461461   74 55            JE SHORT haloce.004614B8
; 00461463   8B15 44CD6800    MOV EDX,DWORD PTR DS:[68CD44]            ; haloce.006236B8
; 00461469   8B42 6C          MOV EAX,DWORD PTR DS:[EDX+6C]
; 0046146C   85C0             TEST EAX,EAX
; 0046146E   74 17            JE SHORT haloce.00461487
; 00461470   68 00040000      PUSH 400
; 00461475   8D4C24 24        LEA ECX,DWORD PTR SS:[ESP+24]
; 00461479   51               PUSH ECX
; 0046147A   55               PUSH EBP
; 0046147B   6A 08            PUSH 8
; 0046147D   57               PUSH EDI
; 0046147E   FFD0             CALL EAX
; 00461480   83C4 14          ADD ESP,14
; 00461483   84C0             TEST AL,AL
; 00461485   75 1A            JNZ SHORT haloce.004614A1
; 00461487   68 00040000      PUSH 400
; 0046148C   55               PUSH EBP
; 0046148D   6A 08            PUSH 8
; 0046148F   8D5C24 2C        LEA EBX,DWORD PTR SS:[ESP+2C]
; 00461493   8BC7             MOV EAX,EDI
; 00461495   E8 26DEFFFF      CALL haloce.0045F2C0
; 0046149A   83C4 0C          ADD ESP,0C
; 0046149D   84C0             TEST AL,AL
; 0046149F   74 17            JE SHORT haloce.004614B8
; 004614A1   8D5424 20        LEA EDX,DWORD PTR SS:[ESP+20]
; 004614A5   52               PUSH EDX
; 004614A6   66:C78424 220800>MOV WORD PTR SS:[ESP+822],0
; 004614B0   E8 1BD60400      CALL haloce.004AEAD0
; 004614B5   83C4 04          ADD ESP,4
; 004614B8   66:833D D0476B00>CMP WORD PTR DS:[6B47D0],2
; 004614C0   0F85 2A010000    JNZ haloce.004615F0
; 004614C6   55               PUSH EBP
; 004614C7   6A 08            PUSH 8
; 004614C9   8BCF             MOV ECX,EDI
; 004614CB   8BC7             MOV EAX,EDI
; 004614CD   E8 6E010000      CALL haloce.00461640
; 004614D2   83C4 08          ADD ESP,8
; 004614D5   5B               POP EBX
; 004614D6   5F               POP EDI
; 004614D7   5E               POP ESI
; 004614D8   5D               POP EBP
; 004614D9   81C4 10080000    ADD ESP,810
; 004614DF   C3               RETN
; 004614E0   8BC3             MOV EAX,EBX
; 004614E2   35 72657469      XOR EAX,69746572
; 004614E7   8D7C24 10        LEA EDI,DWORD PTR SS:[ESP+10]
; 004614EB   895C24 10        MOV DWORD PTR SS:[ESP+10],EBX
; 004614EF   66:C74424 14 000>MOV WORD PTR SS:[ESP+14],0
; 004614F6   C74424 18 FFFFFF>MOV DWORD PTR SS:[ESP+18],-1
; 004614FE   894424 1C        MOV DWORD PTR SS:[ESP+1C],EAX
; 00461502   E8 09260700      CALL haloce.004D3B10
; 00461507   85C0             TEST EAX,EAX
; 00461509   0F84 E1000000    JE haloce.004615F0
; 0046150F   90               NOP
; 00461510   8B7424 18        MOV ESI,DWORD PTR SS:[ESP+18]
; 00461514   83FE FF          CMP ESI,-1
; 00461517   0F84 C2000000    JE haloce.004615DF
; 0046151D   8BCE             MOV ECX,ESI
; 0046151F   66:8BD6          MOV DX,SI
; 00461522   C1F9 10          SAR ECX,10
; 00461525   66:85D2          TEST DX,DX
; 00461528   0F8C B1000000    JL haloce.004615DF
; 0046152E   66:3B53 20       CMP DX,WORD PTR DS:[EBX+20]
; 00461532   0F8D A7000000    JGE haloce.004615DF
; 00461538   0FBF43 22        MOVSX EAX,WORD PTR DS:[EBX+22]
; 0046153C   0FBFD2           MOVSX EDX,DX
; 0046153F   0FAFC2           IMUL EAX,EDX
; 00461542   0343 34          ADD EAX,DWORD PTR DS:[EBX+34]
; 00461545   66:8B10          MOV DX,WORD PTR DS:[EAX]
; 00461548   66:85D2          TEST DX,DX
; 0046154B   0F84 8E000000    JE haloce.004615DF
; 00461551   66:85C9          TEST CX,CX
; 00461554   74 09            JE SHORT haloce.0046155F
; 00461556   66:3BD1          CMP DX,CX
; 00461559   0F85 80000000    JNZ haloce.004615DF
; 0046155F   66:8378 02 FF    CMP WORD PTR DS:[EAX+2],0FFFF
; 00461564   74 5A            JE SHORT haloce.004615C0
; 00461566   A1 44CD6800      MOV EAX,DWORD PTR DS:[68CD44]
; 0046156B   8B40 6C          MOV EAX,DWORD PTR DS:[EAX+6C]
; 0046156E   85C0             TEST EAX,EAX
; 00461570   74 17            JE SHORT haloce.00461589
; 00461572   68 00040000      PUSH 400
; 00461577   8D4C24 24        LEA ECX,DWORD PTR SS:[ESP+24]
; 0046157B   51               PUSH ECX
; 0046157C   55               PUSH EBP
; 0046157D   6A 08            PUSH 8
; 0046157F   56               PUSH ESI
; 00461580   FFD0             CALL EAX
; 00461582   83C4 14          ADD ESP,14
; 00461585   84C0             TEST AL,AL
; 00461587   75 1A            JNZ SHORT haloce.004615A3
; 00461589   68 00040000      PUSH 400
; 0046158E   55               PUSH EBP
; 0046158F   6A 08            PUSH 8
; 00461591   8D5C24 2C        LEA EBX,DWORD PTR SS:[ESP+2C]
; 00461595   8BC6             MOV EAX,ESI
; 00461597   E8 24DDFFFF      CALL haloce.0045F2C0
; 0046159C   83C4 0C          ADD ESP,0C
; 0046159F   84C0             TEST AL,AL
; 004615A1   74 17            JE SHORT haloce.004615BA
; 004615A3   8D5424 20        LEA EDX,DWORD PTR SS:[ESP+20]
; 004615A7   52               PUSH EDX
; 004615A8   66:C78424 220800>MOV WORD PTR SS:[ESP+822],0
; 004615B2   E8 19D50400      CALL haloce.004AEAD0
; 004615B7   83C4 04          ADD ESP,4
; 004615BA   8B1D C0558100    MOV EBX,DWORD PTR DS:[8155C0]
; 004615C0   66:833D D0476B00>CMP WORD PTR DS:[6B47D0],2
; 004615C8   75 15            JNZ SHORT haloce.004615DF
; 004615CA   55               PUSH EBP
; 004615CB   6A 08            PUSH 8
; 004615CD   8BCE             MOV ECX,ESI
; 004615CF   8BC6             MOV EAX,ESI
; 004615D1   E8 6A000000      CALL haloce.00461640
; 004615D6   8B1D C0558100    MOV EBX,DWORD PTR DS:[8155C0]
; 004615DC   83C4 08          ADD ESP,8
; 004615DF   8D7C24 10        LEA EDI,DWORD PTR SS:[ESP+10]
; 004615E3   E8 28250700      CALL haloce.004D3B10
; 004615E8   85C0             TEST EAX,EAX
; 004615EA  ^0F85 20FFFFFF    JNZ haloce.00461510
004615F0   5B               POP EBX
004615F1   5F               POP EDI
004615F2   5E               POP ESI
004615F3   5D               POP EBP
004615F4   81C4 10080000    ADD ESP,810
004615FA   C3               RETN
<-
00473293   83C4 0C          ADD ESP,0C

