;notes by Jesus7Freak
;haloce1.09 p0 bloodgulch
;console 004C9BE3
...1 ;inspect
0048D1E3   FF52 0C          CALL DWORD PTR DS:[EDX+C] ;EDX=005F5DD8   haloce.0048C8D0
...2 ;sv_kick
0048D1E3   FF52 0C          CALL DWORD PTR DS:[EDX+C] ;EDX=005F995C   haloce.00485900
...3 ;sv_kick
0048D1E3   FF52 0C          CALL DWORD PTR DS:[EDX+C] ;EDX=005F995C   haloce.00485900
...4 ;inspect
0048D1E3   FF52 0C          CALL DWORD PTR DS:[EDX+C] ;EDX=005F5DD8   haloce.0048C8D0


...2
0048D1E0   51               PUSH ECX ;403D8501
0048D1E1   57               PUSH EDI ;F3690000
0048D1E2   50               PUSH EAX ;000001F1
0048D1E3   FF52 0C          CALL DWORD PTR DS:[EDX+C] ;EDX=005F995C   haloce.00485900
->
00485900   0FBF4424 04      MOVSX EAX,WORD PTR SS:[ESP+4]
00485905   8B0485 18416200  MOV EAX,DWORD PTR DS:[EAX*4+624118]
0048590C   8B4C24 0C        MOV ECX,DWORD PTR SS:[ESP+C]
00485910   56               PUSH ESI
00485911   8B7424 0C        MOV ESI,DWORD PTR SS:[ESP+C]
00485915   51               PUSH ECX
00485916   8D50 1C          LEA EDX,DWORD PTR DS:[EAX+1C]
00485919   0FBF40 1A        MOVSX EAX,WORD PTR DS:[EAX+1A]
0048591D   52               PUSH EDX
0048591E   50               PUSH EAX
0048591F   56               PUSH ESI
00485920   E8 7B7C0000      CALL haloce.0048D5A0

...

;EAX ptr to player index char num
0048592C   8B00             MOV EAX,DWORD PTR DS:[EAX]
0048592E   E8 FD180600      CALL haloce.004E7230
->
 004E7230   66:833D D0476B00 CMP WORD PTR DS:[6B47D0],2
 004E7238   75 6C            JNZ SHORT haloce.004E72A6
 004E723A   E8 61060000      CALL haloce.004E78A0
 004E723F   85C0             TEST EAX,EAX
 004E7241   74 4D            JE SHORT haloce.004E7290
 004E7243   56               PUSH ESI
 004E7244   8B35 84736B00    MOV ESI,DWORD PTR DS:[6B7384]            ; haloce.007FC340
 004E724A   57               PUSH EDI
 004E724B   0FBE78 1C        MOVSX EDI,BYTE PTR DS:[EAX+1C]
 004E724F   E8 2CCDFFFF      CALL haloce.004E3F80
 004E7254   8BF8             MOV EDI,EAX
 004E7256   85FF             TEST EDI,EDI
 004E7258   74 10            JE SHORT haloce.004E726A
 004E725A   8B07             MOV EAX,DWORD PTR DS:[EDI]
 004E725C   85C0             TEST EAX,EAX
 004E725E   74 0A            JE SHORT haloce.004E726A
 004E7260   8A88 980A0000    MOV CL,BYTE PTR DS:[EAX+A98]
 004E7266   84C9             TEST CL,CL
 004E7268   75 27            JNZ SHORT haloce.004E7291
 004E726A   8B47 5C          MOV EAX,DWORD PTR DS:[EDI+5C]
 004E726D   8B0D 04AD6300    MOV ECX,DWORD PTR DS:[63AD04]
 004E7273   50               PUSH EAX
 004E7274   51               PUSH ECX
 004E7275   E8 168C0D00      CALL haloce.005BFE90
 004E727A   8B15 84736B00    MOV EDX,DWORD PTR DS:[6B7384]            ; haloce.007FC340
 004E7280   52               PUSH EDX
 004E7281   B9 07000000      MOV ECX,7
 004E7286   E8 F5CFFFFF      CALL haloce.004E4280
 004E728B   83C4 0C          ADD ESP,0C
 004E728E   5F               POP EDI
 004E728F   5E               POP ESI
 004E7290   C3               RETN

 004E7291   A1 D8076200      MOV EAX,DWORD PTR DS:[6207D8]
 004E7296   68 E0D06000      PUSH haloce.0060D0E0                     ; ASCII "sv_kick:  Can't kick a local client!"
 004E729B   E8 E029FBFF      CALL haloce.00499C80
 004E72A0   83C4 04          ADD ESP,4
 004E72A3   5F               POP EDI
 004E72A4   5E               POP ESI
 004E72A5   C3               RETN

 004E72A6   A1 BC076200      MOV EAX,DWORD PTR DS:[6207BC]
 004E72AB   68 BCD06000      PUSH haloce.0060D0BC                     ; ASCII "sv_kick is a server-only function!"
 004E72B0   E8 CB29FBFF      CALL haloce.00499C80
 004E72B5   83C4 04          ADD ESP,4
 004E72B8   C3               RETN
<-
00485933   8BCE             MOV ECX,ESI
00485935   33C0             XOR EAX,EAX


